Archive member included because of file (symbol)

../cups/libcups.a(http.o)     ../ipr/ipr.o (httpConnect)
../cups/libcups.a(http-addr.o)
                              ../cups/libcups.a(http.o) (httpAddrLocalhost)
../cups/libcups.a(http-addrlist.o)
                              ../cups/libcups.a(http.o) (httpAddrFreeList)
../cups/libcups.a(http-support.o)
                              ../cups/libcups.a(http.o) (_httpEncodeURI)
../cups/libcups.a(ipp.o)      ../ipr/ipr.o (ippDelete)
../cups/libcups.a(langprintf.o)
                              ../cups/libcups.a(http-support.o) (_cupsLangPrintFilter)
../cups/libcups.a(language.o)
                              ../cups/libcups.a(http-support.o) (_cupsLangString)
../cups/libcups.a(md5.o)      ../cups/libcups.a(http-support.o) (_cupsMD5Init)
../cups/libcups.a(request.o)  ../cups/libcups.a(http.o) (_cupsSetError)
../cups/libcups.a(string.o)   ../cups/libcups.a(http.o) (_cups_strlcpy)
../cups/libcups.a(thread.o)   ../cups/libcups.a(ipp.o) (_cupsMutexLock)
../cups/libcups.a(transcode.o)
                              ../cups/libcups.a(langprintf.o) (cupsUTF8ToCharset)
../cups/libcups.a(usersys.o)  ../cups/libcups.a(http.o) (cupsUserAgent)
../cups/libcups.a(array.o)    ../cups/libcups.a(http.o) (cupsArrayCount)
../cups/libcups.a(auth.o)     ../cups/libcups.a(request.o) (cupsDoAuthentication)
../cups/libcups.a(file.o)     ../cups/libcups.a(language.o) (cupsFileGets)
../cups/libcups.a(globals.o)  ../cups/libcups.a(http.o) (_cupsGlobalLock)
../cups/libcups.a(ipp-support.o)
                              ../cups/libcups.a(request.o) (ippPort)
../cups/libcups.a(md5passwd.o)
                              ../cups/libcups.a(auth.o) (httpMD5Final)
/SDK/local/newlib/lib/libz.a(crc32.o)
                              ../cups/libcups.a(file.o) (crc32)
/SDK/local/newlib/lib/libz.a(deflate.o)
                              ../cups/libcups.a(http.o) (deflateEnd)
/SDK/local/newlib/lib/libz.a(inflate.o)
                              ../cups/libcups.a(http.o) (inflate)
/SDK/local/newlib/lib/libz.a(inftrees.o)
                              /SDK/local/newlib/lib/libz.a(inflate.o) (inflate_table)
/SDK/local/newlib/lib/libz.a(trees.o)
                              /SDK/local/newlib/lib/libz.a(deflate.o) (_tr_init)
/SDK/local/newlib/lib/libz.a(zutil.o)
                              /SDK/local/newlib/lib/libz.a(deflate.o) (zcfree)
/SDK/local/newlib/lib/libz.a(adler32.o)
                              /SDK/local/newlib/lib/libz.a(deflate.o) (adler32)
/SDK/local/newlib/lib/libz.a(inffast.o)
                              /SDK/local/newlib/lib/libz.a(inflate.o) (inflate_fast)
/SDK/local/newlib/lib/libregex.a(regcomp.o)
                              ../cups/libcups.a(ipp.o) (regcomp)
/SDK/local/newlib/lib/libregex.a(regerror.o)
                              ../cups/libcups.a(ipp.o) (regerror)
/SDK/local/newlib/lib/libregex.a(regexec.o)
                              ../cups/libcups.a(ipp.o) (regexec)
/SDK/local/newlib/lib/libregex.a(regfree.o)
                              ../cups/libcups.a(ipp.o) (regfree)
/GCC/lib/gcc/ppc-amigaos/4.2.4/newlib/lib/libstdc++.a(functexcept.o)
                              ../ipr/AttrGroups.o (std::__throw_bad_alloc())
/GCC/lib/gcc/ppc-amigaos/4.2.4/newlib/lib/libstdc++.a(ios_failure.o)
                              /GCC/lib/gcc/ppc-amigaos/4.2.4/newlib/lib/libstdc++.a(functexcept.o) (std::ios_base::failure::~failure())
/GCC/lib/gcc/ppc-amigaos/4.2.4/newlib/lib/libstdc++.a(stdexcept.o)
                              /GCC/lib/gcc/ppc-amigaos/4.2.4/newlib/lib/libstdc++.a(functexcept.o) (std::runtime_error::what() const)
/GCC/lib/gcc/ppc-amigaos/4.2.4/newlib/lib/libstdc++.a(tree.o)
                              ../ipr/AttrGroups.o (std::_Rb_tree_increment(std::_Rb_tree_node_base*))
/GCC/lib/gcc/ppc-amigaos/4.2.4/newlib/lib/libstdc++.a(string-inst.o)
                              ../ipr/AttrGroups.o (std::string::_Rep::_S_empty_rep_storage)
/GCC/lib/gcc/ppc-amigaos/4.2.4/newlib/lib/libstdc++.a(del_op.o)
                              ../ipr/AttrGroups.o (operator delete(void*))
/GCC/lib/gcc/ppc-amigaos/4.2.4/newlib/lib/libstdc++.a(del_opv.o)
                              ../ipr/iprutil.o (operator delete[](void*))
/GCC/lib/gcc/ppc-amigaos/4.2.4/newlib/lib/libstdc++.a(eh_alloc.o)
                              /GCC/lib/gcc/ppc-amigaos/4.2.4/newlib/lib/libstdc++.a(functexcept.o) (__cxa_free_exception)
/GCC/lib/gcc/ppc-amigaos/4.2.4/newlib/lib/libstdc++.a(eh_catch.o)
                              ../ipr/AttrGroups.o (__cxa_end_catch)
/GCC/lib/gcc/ppc-amigaos/4.2.4/newlib/lib/libstdc++.a(eh_exception.o)
                              /GCC/lib/gcc/ppc-amigaos/4.2.4/newlib/lib/libstdc++.a(ios_failure.o) (std::exception::~exception())
/GCC/lib/gcc/ppc-amigaos/4.2.4/newlib/lib/libstdc++.a(eh_globals.o)
                              /GCC/lib/gcc/ppc-amigaos/4.2.4/newlib/lib/libstdc++.a(eh_catch.o) (__cxa_get_globals_fast)
/GCC/lib/gcc/ppc-amigaos/4.2.4/newlib/lib/libstdc++.a(eh_personality.o)
                              ../ipr/ipr.o (__gxx_personality_sj0)
/GCC/lib/gcc/ppc-amigaos/4.2.4/newlib/lib/libstdc++.a(eh_terminate.o)
                              /GCC/lib/gcc/ppc-amigaos/4.2.4/newlib/lib/libstdc++.a(eh_personality.o) (__cxxabiv1::__terminate(void (*)()))
/GCC/lib/gcc/ppc-amigaos/4.2.4/newlib/lib/libstdc++.a(eh_term_handler.o)
                              /GCC/lib/gcc/ppc-amigaos/4.2.4/newlib/lib/libstdc++.a(eh_terminate.o) (__cxxabiv1::__terminate_handler)
/GCC/lib/gcc/ppc-amigaos/4.2.4/newlib/lib/libstdc++.a(eh_throw.o)
                              ../ipr/AttrGroups.o (__cxa_rethrow)
/GCC/lib/gcc/ppc-amigaos/4.2.4/newlib/lib/libstdc++.a(eh_unex_handler.o)
                              /GCC/lib/gcc/ppc-amigaos/4.2.4/newlib/lib/libstdc++.a(eh_terminate.o) (__cxxabiv1::__unexpected_handler)
/GCC/lib/gcc/ppc-amigaos/4.2.4/newlib/lib/libstdc++.a(new_handler.o)
                              /GCC/lib/gcc/ppc-amigaos/4.2.4/newlib/lib/libstdc++.a(functexcept.o) (vtable for std::bad_alloc)
/GCC/lib/gcc/ppc-amigaos/4.2.4/newlib/lib/libstdc++.a(new_op.o)
                              ../ipr/AttrGroups.o (operator new(unsigned int))
/GCC/lib/gcc/ppc-amigaos/4.2.4/newlib/lib/libstdc++.a(new_opv.o)
                              ../ipr/iprutil.o (operator new[](unsigned int))
/GCC/lib/gcc/ppc-amigaos/4.2.4/newlib/lib/libstdc++.a(tinfo.o)
                              ../ipr/AttrGroups.o (vtable for __cxxabiv1::__class_type_info)
/GCC/lib/gcc/ppc-amigaos/4.2.4/newlib/lib/libstdc++.a(vterminate.o)
                              /GCC/lib/gcc/ppc-amigaos/4.2.4/newlib/lib/libstdc++.a(eh_term_handler.o) (__gnu_cxx::__verbose_terminate_handler())
/GCC/lib/gcc/ppc-amigaos/4.2.4/newlib/lib/libstdc++.a(cp-demangle.o)
                              /GCC/lib/gcc/ppc-amigaos/4.2.4/newlib/lib/libstdc++.a(vterminate.o) (__cxa_demangle)
/GCC/lib/gcc/ppc-amigaos/4.2.4/newlib/lib/libstdc++.a(eh_call.o)
                              /GCC/lib/gcc/ppc-amigaos/4.2.4/newlib/lib/libstdc++.a(eh_personality.o) (__cxa_call_terminate)
/GCC/lib/gcc/ppc-amigaos/4.2.4/newlib/lib/libstdc++.a(eh_type.o)
                              /GCC/lib/gcc/ppc-amigaos/4.2.4/newlib/lib/libstdc++.a(vterminate.o) (__cxa_current_exception_type)
/GCC/lib/gcc/ppc-amigaos/4.2.4/newlib/lib/libgcc_eh.a(unwind-sjlj.o)
                              ../ipr/ipr.o (_Unwind_SjLj_Register)
/SDK/newlib/lib/libc.a(lib_a-ctype_.o)
                              ../cups/libcups.a(http.o) (__ctype_ptr)
/SDK/newlib/lib/libc.a(stub_abort.o)
                              /GCC/lib/gcc/ppc-amigaos/4.2.4/newlib/lib/libstdc++.a(eh_personality.o) (abort)
/SDK/newlib/lib/libc.a(stub_accept.o)
                              ../cups/libcups.a(http.o) (accept)
/SDK/newlib/lib/libc.a(stub_access.o)
                              ../cups/libcups.a(language.o) (access)
/SDK/newlib/lib/libc.a(stub___assert.o)
                              ../ipr/ipr.o (__assert)
/SDK/newlib/lib/libc.a(stub_atoi.o)
                              ../ipr/ipr.o (atoi)
/SDK/newlib/lib/libc.a(stub_bind.o)
                              ../cups/libcups.a(http-addr.o) (bind)
/SDK/newlib/lib/libc.a(stub_calloc.o)
                              ../cups/libcups.a(http.o) (calloc)
/SDK/newlib/lib/libc.a(stub_close.o)
                              ../ipr/ipr.o (close)
/SDK/newlib/lib/libc.a(stub_connect.o)
                              ../cups/libcups.a(http-addrlist.o) (connect)
/SDK/newlib/lib/libc.a(stub___errno.o)
                              ../cups/libcups.a(http.o) (__errno)
/SDK/newlib/lib/libc.a(stub_fclose.o)
                              ../ipr/iprutil.o (fclose)
/SDK/newlib/lib/libc.a(stub_fcntl.o)
                              ../cups/libcups.a(http.o) (fcntl)
/SDK/newlib/lib/libc.a(stub_feof.o)
                              ../ipr/iprutil.o (feof)
/SDK/newlib/lib/libc.a(stub_fflush.o)
                              ../cups/libcups.a(file.o) (fflush)
/SDK/newlib/lib/libc.a(stub_fgets.o)
                              ../cups/libcups.a(auth.o) (fgets)
/SDK/newlib/lib/libc.a(stub_fmod.o)
                              ../cups/libcups.a(http.o) (fmod)
/SDK/newlib/lib/libc.a(stub_fopen.o)
                              ../ipr/iprutil.o (fopen)
/SDK/newlib/lib/libc.a(stub_fprintf.o)
                              ../ipr/ipr.o (fprintf)
/SDK/newlib/lib/libc.a(stub_fputc.o)
                              /GCC/lib/gcc/ppc-amigaos/4.2.4/newlib/lib/libstdc++.a(vterminate.o) (fputc)
/SDK/newlib/lib/libc.a(stub_fputs.o)
                              /GCC/lib/gcc/ppc-amigaos/4.2.4/newlib/lib/libstdc++.a(vterminate.o) (fputs)
/SDK/newlib/lib/libc.a(stub_fread.o)
                              ../ipr/iprutil.o (fread)
/SDK/newlib/lib/libc.a(stub_free.o)
                              ../cups/libcups.a(http.o) (free)
/SDK/newlib/lib/libc.a(stub_fseek.o)
                              ../ipr/iprutil.o (fseek)
/SDK/newlib/lib/libc.a(stub_fstat.o)
                              ../ipr/ipr.o (fstat)
/SDK/newlib/lib/libc.a(stub_ftell.o)
                              ../ipr/iprutil.o (ftell)
/SDK/newlib/lib/libc.a(stub_ftruncate.o)
                              ../cups/libcups.a(file.o) (ftruncate)
/SDK/newlib/lib/libc.a(stub_fwrite.o)
                              ../ipr/ipr.o (fwrite)
/SDK/newlib/lib/libc.a(stub_getenv.o)
                              ../ipr/ipr.o (getenv)
/SDK/newlib/lib/libc.a(stub_gethostbyaddr.o)
                              ../cups/libcups.a(http-addr.o) (gethostbyaddr)
/SDK/newlib/lib/libc.a(stub_gethostbyname.o)
                              ../cups/libcups.a(http-addr.o) (gethostbyname)
/SDK/newlib/lib/libc.a(stub_gethostname.o)
                              ../cups/libcups.a(http-addr.o) (gethostname)
/SDK/newlib/lib/libc.a(stub_getpid.o)
                              ../cups/libcups.a(auth.o) (getpid)
/SDK/newlib/lib/libc.a(stub_getpwnam.o)
                              ../cups/libcups.a(usersys.o) (getpwnam)
/SDK/newlib/lib/libc.a(stub_getpwuid.o)
                              ../cups/libcups.a(usersys.o) (getpwuid)
/SDK/newlib/lib/libc.a(stub___getreent.o)
                              ../ipr/ipr.o (__getreent)
/SDK/newlib/lib/libc.a(stub_getservbyname.o)
                              ../cups/libcups.a(http-addrlist.o) (getservbyname)
/SDK/newlib/lib/libc.a(stub_getuid.o)
                              ../cups/libcups.a(usersys.o) (getuid)
/SDK/newlib/lib/libc.a(stub_gmtime.o)
                              ../cups/libcups.a(http-support.o) (gmtime)
/SDK/newlib/lib/libc.a(stub___h_errno.o)
                              ../cups/libcups.a(http-addr.o) (__h_errno)
/SDK/newlib/lib/libc.a(stub_hstrerror.o)
                              ../cups/libcups.a(http-addrlist.o) (hstrerror)
/SDK/newlib/lib/libc.a(stub_listen.o)
                              ../cups/libcups.a(http-addr.o) (listen)
/SDK/newlib/lib/libc.a(stub_localeconv.o)
                              ../cups/libcups.a(http.o) (localeconv)
/SDK/newlib/lib/libc.a(stub_localtime.o)
                              ../ipr/AttrGroups.o (localtime)
/SDK/newlib/lib/libc.a(stub_lseek.o)
                              ../cups/libcups.a(request.o) (lseek)
/SDK/newlib/lib/libc.a(stub_lstat.o)
                              ../cups/libcups.a(file.o) (lstat)
/SDK/newlib/lib/libc.a(stub_malloc.o)
                              ../ipr/iprutil.o (malloc)
/SDK/newlib/lib/libc.a(stub_memchr.o)
                              /GCC/lib/gcc/ppc-amigaos/4.2.4/newlib/lib/libstdc++.a(string-inst.o) (memchr)
/SDK/newlib/lib/libc.a(stub_memcmp.o)
                              ../ipr/AttrGroups.o (memcmp)
/SDK/newlib/lib/libc.a(stub_memcpy.o)
                              ../cups/libcups.a(http.o) (memcpy)
/SDK/newlib/lib/libc.a(stub_memmove.o)
                              ../cups/libcups.a(http.o) (memmove)
/SDK/newlib/lib/libc.a(stub_memset.o)
                              ipp_dev.o (memset)
/SDK/newlib/lib/libc.a(stub_mktime.o)
                              ../cups/libcups.a(ipp.o) (mktime)
/SDK/newlib/lib/libc.a(stub___NewlibCall.o)
                              /SDK/newlib/lib/libc.a(stub_abort.o) (__NewlibCall)
/SDK/newlib/lib/libc.a(stub_open.o)
                              ../ipr/ipr.o (open)
/SDK/newlib/lib/libc.a(stub_perror.o)
                              ../ipr/ipr.o (perror)
/SDK/newlib/lib/libc.a(stub_printf.o)
                              ../ipr/ipr.o (printf)
/SDK/newlib/lib/libc.a(stub_putchar.o)
                              ../ipr/ipr.o (putchar)
/SDK/newlib/lib/libc.a(stub_puts.o)
                              ../ipr/ipr.o (puts)
/SDK/newlib/lib/libc.a(stub_rand.o)
                              ../cups/libcups.a(http-support.o) (rand)
/SDK/newlib/lib/libc.a(stub_read.o)
                              ../cups/libcups.a(ipp.o) (read)
/SDK/newlib/lib/libc.a(stub_realloc.o)
                              ../ipr/iprutil.o (realloc)
/SDK/newlib/lib/libc.a(stub_recv.o)
                              ../cups/libcups.a(http.o) (recv)
/SDK/newlib/lib/libc.a(stub_select.o)
                              ../cups/libcups.a(http.o) (select)
/SDK/newlib/lib/libc.a(stub_send.o)
                              ../cups/libcups.a(http.o) (send)
/SDK/newlib/lib/libc.a(stub_setlocale.o)
                              ../cups/libcups.a(langprintf.o) (setlocale)
/SDK/newlib/lib/libc.a(stub_setsockopt.o)
                              ../cups/libcups.a(http.o) (setsockopt)
/SDK/newlib/lib/libc.a(stub_shutdown.o)
                              ../cups/libcups.a(http.o) (shutdown)
/SDK/newlib/lib/libc.a(stub_signal.o)
                              ../cups/libcups.a(http.o) (signal)
/SDK/newlib/lib/libc.a(stub_snprintf.o)
                              ../ipr/AttrGroups.o (snprintf)
/SDK/newlib/lib/libc.a(stub_socket.o)
                              ../cups/libcups.a(http-addr.o) (socket)
/SDK/newlib/lib/libc.a(stub_sprintf.o)
                              ../ipr/ipr.o (sprintf)
/SDK/newlib/lib/libc.a(stub___srget.o)
                              ../ipr/iprutil.o (__srget)
/SDK/newlib/lib/libc.a(stub_sscanf.o)
                              ../cups/libcups.a(http.o) (sscanf)
/SDK/newlib/lib/libc.a(stub_stat.o)
                              ../cups/libcups.a(file.o) (stat)
/SDK/newlib/lib/libc.a(stub_strcat.o)
                              ipp_dev.o (strcat)
/SDK/newlib/lib/libc.a(stub_strchr.o)
                              ../ipr/iprutil.o (strchr)
/SDK/newlib/lib/libc.a(stub_strcmp.o)
                              ../ipr/ipr.o (strcmp)
/SDK/newlib/lib/libc.a(stub_strcpy.o)
                              ipp_dev.o (strcpy)
/SDK/newlib/lib/libc.a(stub_strdup.o)
                              ../cups/libcups.a(http.o) (strdup)
/SDK/newlib/lib/libc.a(stub_strerror.o)
                              ../cups/libcups.a(http.o) (strerror)
/SDK/newlib/lib/libc.a(stub_strftime.o)
                              ../ipr/AttrGroups.o (strftime)
/SDK/newlib/lib/libc.a(stub_strlen.o)
                              ipp_dev.o (strlen)
/SDK/newlib/lib/libc.a(stub_strncasecmp.o)
                              ../ipr/ipr.o (strncasecmp)
/SDK/newlib/lib/libc.a(stub_strncmp.o)
                              ../ipr/ipr.o (strncmp)
/SDK/newlib/lib/libc.a(stub_strncpy.o)
                              ipp_dev.o (strncpy)
/SDK/newlib/lib/libc.a(stub_strpbrk.o)
                              ../cups/libcups.a(http-support.o) (strpbrk)
/SDK/newlib/lib/libc.a(stub_strrchr.o)
                              ../cups/libcups.a(language.o) (strrchr)
/SDK/newlib/lib/libc.a(stub_strstr.o)
                              ../ipr/ipr.o (strstr)
/SDK/newlib/lib/libc.a(stub_strtod.o)
                              ../cups/libcups.a(string.o) (strtod)
/SDK/newlib/lib/libc.a(stub_strtol.o)
                              ../cups/libcups.a(http-support.o) (strtol)
/SDK/newlib/lib/libc.a(stub_strtoll.o)
                              ../cups/libcups.a(http.o) (strtoll)
/SDK/newlib/lib/libc.a(stub_time.o)
                              ../cups/libcups.a(http.o) (time)
/SDK/newlib/lib/libc.a(stub_uname.o)
                              ../cups/libcups.a(usersys.o) (uname)
/SDK/newlib/lib/libc.a(stub_vsnprintf.o)
                              ../cups/libcups.a(http.o) (vsnprintf)
/SDK/newlib/lib/libc.a(stub_write.o)
                              ../cups/libcups.a(ipp.o) (write)

Allocating common symbols
Common symbol       size              file

NewlibBase          0x4               ipp_dev.o
INewlib             0x4               ipp_dev.o

Discarded input sections

 _ZNSt8_Rb_treeISsSt4pairIKSsiESt10_Select1stIS2_ESt4lessISsESaIS2_EE4findERS1_
                0x00000000        0x0 ../ipr/AttrGroups.o
 _ZNSt8_Rb_treeISsSt4pairIKSsiESt10_Select1stIS2_ESt4lessISsESaIS2_EE9_M_insertEPSt18_Rb_tree_node_baseSA_RKS2_
                0x00000000        0x0 ../ipr/AttrGroups.o
 _ZNSt8_Rb_treeISsSt4pairIKSsiESt10_Select1stIS2_ESt4lessISsESaIS2_EE16_M_insert_uniqueERKS2_
                0x00000000        0x0 ../ipr/AttrGroups.o
 _ZNSt8_Rb_treeISsSt4pairIKSsiESt10_Select1stIS2_ESt4lessISsESaIS2_EE8_M_eraseEPSt13_Rb_tree_nodeIS2_E
                0x00000000        0x0 ../ipr/AttrGroups.o
 _ZNSt6vectorISsSaISsEE13_M_insert_auxEN9__gnu_cxx17__normal_iteratorIPSsS1_EERKSs
                0x00000000        0x0 ../ipr/AttrGroups.o
 _ZTV10AttrGroups
                0x00000000        0x0 ../ipr/AttrGroups.o
 _ZTS10AttrGroups
                0x00000000        0x0 ../ipr/AttrGroups.o
 _ZTI10AttrGroups
                0x00000000        0x0 ../ipr/AttrGroups.o
 _ZNSt15underflow_errorD0Ev
                0x00000000        0x0 /GCC/lib/gcc/ppc-amigaos/4.2.4/newlib/lib/libstdc++.a(functexcept.o)
 _ZNSt15underflow_errorD1Ev
                0x00000000        0x0 /GCC/lib/gcc/ppc-amigaos/4.2.4/newlib/lib/libstdc++.a(functexcept.o)
 _ZNSt14overflow_errorD0Ev
                0x00000000        0x0 /GCC/lib/gcc/ppc-amigaos/4.2.4/newlib/lib/libstdc++.a(functexcept.o)
 _ZNSt14overflow_errorD1Ev
                0x00000000        0x0 /GCC/lib/gcc/ppc-amigaos/4.2.4/newlib/lib/libstdc++.a(functexcept.o)
 _ZNSt11range_errorD0Ev
                0x00000000        0x0 /GCC/lib/gcc/ppc-amigaos/4.2.4/newlib/lib/libstdc++.a(functexcept.o)
 _ZNSt11range_errorD1Ev
                0x00000000        0x0 /GCC/lib/gcc/ppc-amigaos/4.2.4/newlib/lib/libstdc++.a(functexcept.o)
 _ZNSt12out_of_rangeD0Ev
                0x00000000        0x0 /GCC/lib/gcc/ppc-amigaos/4.2.4/newlib/lib/libstdc++.a(functexcept.o)
 _ZNSt12out_of_rangeD1Ev
                0x00000000        0x0 /GCC/lib/gcc/ppc-amigaos/4.2.4/newlib/lib/libstdc++.a(functexcept.o)
 _ZNSt12length_errorD0Ev
                0x00000000        0x0 /GCC/lib/gcc/ppc-amigaos/4.2.4/newlib/lib/libstdc++.a(functexcept.o)
 _ZNSt12length_errorD1Ev
                0x00000000        0x0 /GCC/lib/gcc/ppc-amigaos/4.2.4/newlib/lib/libstdc++.a(functexcept.o)
 _ZNSt16invalid_argumentD0Ev
                0x00000000        0x0 /GCC/lib/gcc/ppc-amigaos/4.2.4/newlib/lib/libstdc++.a(functexcept.o)
 _ZNSt16invalid_argumentD1Ev
                0x00000000        0x0 /GCC/lib/gcc/ppc-amigaos/4.2.4/newlib/lib/libstdc++.a(functexcept.o)
 _ZNSt12domain_errorD0Ev
                0x00000000        0x0 /GCC/lib/gcc/ppc-amigaos/4.2.4/newlib/lib/libstdc++.a(functexcept.o)
 _ZNSt12domain_errorD1Ev
                0x00000000        0x0 /GCC/lib/gcc/ppc-amigaos/4.2.4/newlib/lib/libstdc++.a(functexcept.o)
 _ZTISt15underflow_error
                0x00000000        0x0 /GCC/lib/gcc/ppc-amigaos/4.2.4/newlib/lib/libstdc++.a(functexcept.o)
 _ZTSSt15underflow_error
                0x00000000        0x0 /GCC/lib/gcc/ppc-amigaos/4.2.4/newlib/lib/libstdc++.a(functexcept.o)
 _ZTVSt15underflow_error
                0x00000000        0x0 /GCC/lib/gcc/ppc-amigaos/4.2.4/newlib/lib/libstdc++.a(functexcept.o)
 _ZTISt14overflow_error
                0x00000000        0x0 /GCC/lib/gcc/ppc-amigaos/4.2.4/newlib/lib/libstdc++.a(functexcept.o)
 _ZTSSt14overflow_error
                0x00000000        0x0 /GCC/lib/gcc/ppc-amigaos/4.2.4/newlib/lib/libstdc++.a(functexcept.o)
 _ZTVSt14overflow_error
                0x00000000        0x0 /GCC/lib/gcc/ppc-amigaos/4.2.4/newlib/lib/libstdc++.a(functexcept.o)
 _ZTISt11range_error
                0x00000000        0x0 /GCC/lib/gcc/ppc-amigaos/4.2.4/newlib/lib/libstdc++.a(functexcept.o)
 _ZTSSt11range_error
                0x00000000        0x0 /GCC/lib/gcc/ppc-amigaos/4.2.4/newlib/lib/libstdc++.a(functexcept.o)
 _ZTVSt11range_error
                0x00000000        0x0 /GCC/lib/gcc/ppc-amigaos/4.2.4/newlib/lib/libstdc++.a(functexcept.o)
 _ZTISt12out_of_range
                0x00000000        0x0 /GCC/lib/gcc/ppc-amigaos/4.2.4/newlib/lib/libstdc++.a(functexcept.o)
 _ZTSSt12out_of_range
                0x00000000        0x0 /GCC/lib/gcc/ppc-amigaos/4.2.4/newlib/lib/libstdc++.a(functexcept.o)
 _ZTVSt12out_of_range
                0x00000000        0x0 /GCC/lib/gcc/ppc-amigaos/4.2.4/newlib/lib/libstdc++.a(functexcept.o)
 _ZTISt12length_error
                0x00000000        0x0 /GCC/lib/gcc/ppc-amigaos/4.2.4/newlib/lib/libstdc++.a(functexcept.o)
 _ZTSSt12length_error
                0x00000000        0x0 /GCC/lib/gcc/ppc-amigaos/4.2.4/newlib/lib/libstdc++.a(functexcept.o)
 _ZTVSt12length_error
                0x00000000        0x0 /GCC/lib/gcc/ppc-amigaos/4.2.4/newlib/lib/libstdc++.a(functexcept.o)
 _ZTISt16invalid_argument
                0x00000000        0x0 /GCC/lib/gcc/ppc-amigaos/4.2.4/newlib/lib/libstdc++.a(functexcept.o)
 _ZTSSt16invalid_argument
                0x00000000        0x0 /GCC/lib/gcc/ppc-amigaos/4.2.4/newlib/lib/libstdc++.a(functexcept.o)
 _ZTVSt16invalid_argument
                0x00000000        0x0 /GCC/lib/gcc/ppc-amigaos/4.2.4/newlib/lib/libstdc++.a(functexcept.o)
 _ZTISt12domain_error
                0x00000000        0x0 /GCC/lib/gcc/ppc-amigaos/4.2.4/newlib/lib/libstdc++.a(functexcept.o)
 _ZTSSt12domain_error
                0x00000000        0x0 /GCC/lib/gcc/ppc-amigaos/4.2.4/newlib/lib/libstdc++.a(functexcept.o)
 _ZTVSt12domain_error
                0x00000000        0x0 /GCC/lib/gcc/ppc-amigaos/4.2.4/newlib/lib/libstdc++.a(functexcept.o)
 _ZTVNSt8ios_base7failureE
                0x00000000        0x0 /GCC/lib/gcc/ppc-amigaos/4.2.4/newlib/lib/libstdc++.a(ios_failure.o)
 _ZTSNSt8ios_base7failureE
                0x00000000        0x0 /GCC/lib/gcc/ppc-amigaos/4.2.4/newlib/lib/libstdc++.a(ios_failure.o)
 _ZTINSt8ios_base7failureE
                0x00000000        0x0 /GCC/lib/gcc/ppc-amigaos/4.2.4/newlib/lib/libstdc++.a(ios_failure.o)
 _ZNSt11range_errorD0Ev
                0x00000000        0x0 /GCC/lib/gcc/ppc-amigaos/4.2.4/newlib/lib/libstdc++.a(stdexcept.o)
 _ZNSt11range_errorD1Ev
                0x00000000        0x0 /GCC/lib/gcc/ppc-amigaos/4.2.4/newlib/lib/libstdc++.a(stdexcept.o)
 _ZNSt14overflow_errorD0Ev
                0x00000000        0x0 /GCC/lib/gcc/ppc-amigaos/4.2.4/newlib/lib/libstdc++.a(stdexcept.o)
 _ZNSt14overflow_errorD1Ev
                0x00000000        0x0 /GCC/lib/gcc/ppc-amigaos/4.2.4/newlib/lib/libstdc++.a(stdexcept.o)
 _ZNSt15underflow_errorD0Ev
                0x00000000        0x0 /GCC/lib/gcc/ppc-amigaos/4.2.4/newlib/lib/libstdc++.a(stdexcept.o)
 _ZNSt15underflow_errorD1Ev
                0x00000000        0x0 /GCC/lib/gcc/ppc-amigaos/4.2.4/newlib/lib/libstdc++.a(stdexcept.o)
 _ZNSt12domain_errorD0Ev
                0x00000000        0x0 /GCC/lib/gcc/ppc-amigaos/4.2.4/newlib/lib/libstdc++.a(stdexcept.o)
 _ZNSt12domain_errorD1Ev
                0x00000000        0x0 /GCC/lib/gcc/ppc-amigaos/4.2.4/newlib/lib/libstdc++.a(stdexcept.o)
 _ZNSt16invalid_argumentD0Ev
                0x00000000        0x0 /GCC/lib/gcc/ppc-amigaos/4.2.4/newlib/lib/libstdc++.a(stdexcept.o)
 _ZNSt16invalid_argumentD1Ev
                0x00000000        0x0 /GCC/lib/gcc/ppc-amigaos/4.2.4/newlib/lib/libstdc++.a(stdexcept.o)
 _ZNSt12length_errorD0Ev
                0x00000000        0x0 /GCC/lib/gcc/ppc-amigaos/4.2.4/newlib/lib/libstdc++.a(stdexcept.o)
 _ZNSt12length_errorD1Ev
                0x00000000        0x0 /GCC/lib/gcc/ppc-amigaos/4.2.4/newlib/lib/libstdc++.a(stdexcept.o)
 _ZNSt12out_of_rangeD0Ev
                0x00000000        0x0 /GCC/lib/gcc/ppc-amigaos/4.2.4/newlib/lib/libstdc++.a(stdexcept.o)
 _ZNSt12out_of_rangeD1Ev
                0x00000000        0x0 /GCC/lib/gcc/ppc-amigaos/4.2.4/newlib/lib/libstdc++.a(stdexcept.o)
 _ZTVSt13runtime_error
                0x00000000        0x0 /GCC/lib/gcc/ppc-amigaos/4.2.4/newlib/lib/libstdc++.a(stdexcept.o)
 _ZTVSt11logic_error
                0x00000000        0x0 /GCC/lib/gcc/ppc-amigaos/4.2.4/newlib/lib/libstdc++.a(stdexcept.o)
 _ZTSSt13runtime_error
                0x00000000        0x0 /GCC/lib/gcc/ppc-amigaos/4.2.4/newlib/lib/libstdc++.a(stdexcept.o)
 _ZTISt13runtime_error
                0x00000000        0x0 /GCC/lib/gcc/ppc-amigaos/4.2.4/newlib/lib/libstdc++.a(stdexcept.o)
 _ZTSSt11logic_error
                0x00000000        0x0 /GCC/lib/gcc/ppc-amigaos/4.2.4/newlib/lib/libstdc++.a(stdexcept.o)
 _ZTISt11logic_error
                0x00000000        0x0 /GCC/lib/gcc/ppc-amigaos/4.2.4/newlib/lib/libstdc++.a(stdexcept.o)
 _ZTVSt15underflow_error
                0x00000000        0x0 /GCC/lib/gcc/ppc-amigaos/4.2.4/newlib/lib/libstdc++.a(stdexcept.o)
 _ZTISt15underflow_error
                0x00000000        0x0 /GCC/lib/gcc/ppc-amigaos/4.2.4/newlib/lib/libstdc++.a(stdexcept.o)
 _ZTSSt15underflow_error
                0x00000000        0x0 /GCC/lib/gcc/ppc-amigaos/4.2.4/newlib/lib/libstdc++.a(stdexcept.o)
 _ZTVSt14overflow_error
                0x00000000        0x0 /GCC/lib/gcc/ppc-amigaos/4.2.4/newlib/lib/libstdc++.a(stdexcept.o)
 _ZTISt14overflow_error
                0x00000000        0x0 /GCC/lib/gcc/ppc-amigaos/4.2.4/newlib/lib/libstdc++.a(stdexcept.o)
 _ZTSSt14overflow_error
                0x00000000        0x0 /GCC/lib/gcc/ppc-amigaos/4.2.4/newlib/lib/libstdc++.a(stdexcept.o)
 _ZTVSt11range_error
                0x00000000        0x0 /GCC/lib/gcc/ppc-amigaos/4.2.4/newlib/lib/libstdc++.a(stdexcept.o)
 _ZTISt11range_error
                0x00000000        0x0 /GCC/lib/gcc/ppc-amigaos/4.2.4/newlib/lib/libstdc++.a(stdexcept.o)
 _ZTSSt11range_error
                0x00000000        0x0 /GCC/lib/gcc/ppc-amigaos/4.2.4/newlib/lib/libstdc++.a(stdexcept.o)
 _ZTVSt12out_of_range
                0x00000000        0x0 /GCC/lib/gcc/ppc-amigaos/4.2.4/newlib/lib/libstdc++.a(stdexcept.o)
 _ZTISt12out_of_range
                0x00000000        0x0 /GCC/lib/gcc/ppc-amigaos/4.2.4/newlib/lib/libstdc++.a(stdexcept.o)
 _ZTSSt12out_of_range
                0x00000000        0x0 /GCC/lib/gcc/ppc-amigaos/4.2.4/newlib/lib/libstdc++.a(stdexcept.o)
 _ZTVSt12length_error
                0x00000000        0x0 /GCC/lib/gcc/ppc-amigaos/4.2.4/newlib/lib/libstdc++.a(stdexcept.o)
 _ZTISt12length_error
                0x00000000        0x0 /GCC/lib/gcc/ppc-amigaos/4.2.4/newlib/lib/libstdc++.a(stdexcept.o)
 _ZTSSt12length_error
                0x00000000        0x0 /GCC/lib/gcc/ppc-amigaos/4.2.4/newlib/lib/libstdc++.a(stdexcept.o)
 _ZTVSt16invalid_argument
                0x00000000        0x0 /GCC/lib/gcc/ppc-amigaos/4.2.4/newlib/lib/libstdc++.a(stdexcept.o)
 _ZTISt16invalid_argument
                0x00000000        0x0 /GCC/lib/gcc/ppc-amigaos/4.2.4/newlib/lib/libstdc++.a(stdexcept.o)
 _ZTSSt16invalid_argument
                0x00000000        0x0 /GCC/lib/gcc/ppc-amigaos/4.2.4/newlib/lib/libstdc++.a(stdexcept.o)
 _ZTVSt12domain_error
                0x00000000        0x0 /GCC/lib/gcc/ppc-amigaos/4.2.4/newlib/lib/libstdc++.a(stdexcept.o)
 _ZTISt12domain_error
                0x00000000        0x0 /GCC/lib/gcc/ppc-amigaos/4.2.4/newlib/lib/libstdc++.a(stdexcept.o)
 _ZTSSt12domain_error
                0x00000000        0x0 /GCC/lib/gcc/ppc-amigaos/4.2.4/newlib/lib/libstdc++.a(stdexcept.o)
 .text._ZNSt11range_errorD0Ev
                0x00000000        0x0 /GCC/lib/gcc/ppc-amigaos/4.2.4/newlib/lib/libstdc++.a(stdexcept.o)
 .text._ZNSt11range_errorD1Ev
                0x00000000        0x0 /GCC/lib/gcc/ppc-amigaos/4.2.4/newlib/lib/libstdc++.a(stdexcept.o)
 .text._ZNSt14overflow_errorD0Ev
                0x00000000        0x0 /GCC/lib/gcc/ppc-amigaos/4.2.4/newlib/lib/libstdc++.a(stdexcept.o)
 .text._ZNSt14overflow_errorD1Ev
                0x00000000        0x0 /GCC/lib/gcc/ppc-amigaos/4.2.4/newlib/lib/libstdc++.a(stdexcept.o)
 .text._ZNSt15underflow_errorD0Ev
                0x00000000        0x0 /GCC/lib/gcc/ppc-amigaos/4.2.4/newlib/lib/libstdc++.a(stdexcept.o)
 .text._ZNSt15underflow_errorD1Ev
                0x00000000        0x0 /GCC/lib/gcc/ppc-amigaos/4.2.4/newlib/lib/libstdc++.a(stdexcept.o)
 .text._ZNSt12domain_errorD0Ev
                0x00000000        0x0 /GCC/lib/gcc/ppc-amigaos/4.2.4/newlib/lib/libstdc++.a(stdexcept.o)
 .text._ZNSt12domain_errorD1Ev
                0x00000000        0x0 /GCC/lib/gcc/ppc-amigaos/4.2.4/newlib/lib/libstdc++.a(stdexcept.o)
 .text._ZNSt16invalid_argumentD0Ev
                0x00000000        0x0 /GCC/lib/gcc/ppc-amigaos/4.2.4/newlib/lib/libstdc++.a(stdexcept.o)
 .text._ZNSt16invalid_argumentD1Ev
                0x00000000        0x0 /GCC/lib/gcc/ppc-amigaos/4.2.4/newlib/lib/libstdc++.a(stdexcept.o)
 .text._ZNSt12length_errorD0Ev
                0x00000000        0x0 /GCC/lib/gcc/ppc-amigaos/4.2.4/newlib/lib/libstdc++.a(stdexcept.o)
 .text._ZNSt12length_errorD1Ev
                0x00000000        0x0 /GCC/lib/gcc/ppc-amigaos/4.2.4/newlib/lib/libstdc++.a(stdexcept.o)
 .text._ZNSt12out_of_rangeD0Ev
                0x00000000        0x0 /GCC/lib/gcc/ppc-amigaos/4.2.4/newlib/lib/libstdc++.a(stdexcept.o)
 .text._ZNSt12out_of_rangeD1Ev
                0x00000000        0x0 /GCC/lib/gcc/ppc-amigaos/4.2.4/newlib/lib/libstdc++.a(stdexcept.o)
 .rodata._ZTVSt15underflow_error
                0x00000000        0x0 /GCC/lib/gcc/ppc-amigaos/4.2.4/newlib/lib/libstdc++.a(stdexcept.o)
 .rodata._ZTISt15underflow_error
                0x00000000        0x0 /GCC/lib/gcc/ppc-amigaos/4.2.4/newlib/lib/libstdc++.a(stdexcept.o)
 .rodata._ZTSSt15underflow_error
                0x00000000        0x0 /GCC/lib/gcc/ppc-amigaos/4.2.4/newlib/lib/libstdc++.a(stdexcept.o)
 .rodata._ZTVSt14overflow_error
                0x00000000        0x0 /GCC/lib/gcc/ppc-amigaos/4.2.4/newlib/lib/libstdc++.a(stdexcept.o)
 .rodata._ZTISt14overflow_error
                0x00000000        0x0 /GCC/lib/gcc/ppc-amigaos/4.2.4/newlib/lib/libstdc++.a(stdexcept.o)
 .rodata._ZTSSt14overflow_error
                0x00000000        0x0 /GCC/lib/gcc/ppc-amigaos/4.2.4/newlib/lib/libstdc++.a(stdexcept.o)
 .rodata._ZTVSt11range_error
                0x00000000        0x0 /GCC/lib/gcc/ppc-amigaos/4.2.4/newlib/lib/libstdc++.a(stdexcept.o)
 .rodata._ZTISt11range_error
                0x00000000        0x0 /GCC/lib/gcc/ppc-amigaos/4.2.4/newlib/lib/libstdc++.a(stdexcept.o)
 .rodata._ZTSSt11range_error
                0x00000000        0x0 /GCC/lib/gcc/ppc-amigaos/4.2.4/newlib/lib/libstdc++.a(stdexcept.o)
 .rodata._ZTVSt12out_of_range
                0x00000000        0x0 /GCC/lib/gcc/ppc-amigaos/4.2.4/newlib/lib/libstdc++.a(stdexcept.o)
 .rodata._ZTISt12out_of_range
                0x00000000        0x0 /GCC/lib/gcc/ppc-amigaos/4.2.4/newlib/lib/libstdc++.a(stdexcept.o)
 .rodata._ZTSSt12out_of_range
                0x00000000        0x0 /GCC/lib/gcc/ppc-amigaos/4.2.4/newlib/lib/libstdc++.a(stdexcept.o)
 .rodata._ZTVSt12length_error
                0x00000000        0x0 /GCC/lib/gcc/ppc-amigaos/4.2.4/newlib/lib/libstdc++.a(stdexcept.o)
 .rodata._ZTISt12length_error
                0x00000000        0x0 /GCC/lib/gcc/ppc-amigaos/4.2.4/newlib/lib/libstdc++.a(stdexcept.o)
 .rodata._ZTSSt12length_error
                0x00000000        0x0 /GCC/lib/gcc/ppc-amigaos/4.2.4/newlib/lib/libstdc++.a(stdexcept.o)
 .rodata._ZTVSt16invalid_argument
                0x00000000        0x0 /GCC/lib/gcc/ppc-amigaos/4.2.4/newlib/lib/libstdc++.a(stdexcept.o)
 .rodata._ZTISt16invalid_argument
                0x00000000        0x0 /GCC/lib/gcc/ppc-amigaos/4.2.4/newlib/lib/libstdc++.a(stdexcept.o)
 .rodata._ZTSSt16invalid_argument
                0x00000000        0x0 /GCC/lib/gcc/ppc-amigaos/4.2.4/newlib/lib/libstdc++.a(stdexcept.o)
 .rodata._ZTVSt12domain_error
                0x00000000        0x0 /GCC/lib/gcc/ppc-amigaos/4.2.4/newlib/lib/libstdc++.a(stdexcept.o)
 .rodata._ZTISt12domain_error
                0x00000000        0x0 /GCC/lib/gcc/ppc-amigaos/4.2.4/newlib/lib/libstdc++.a(stdexcept.o)
 .rodata._ZTSSt12domain_error
                0x00000000        0x0 /GCC/lib/gcc/ppc-amigaos/4.2.4/newlib/lib/libstdc++.a(stdexcept.o)
 _ZNKSs7_M_dataEv
                0x00000000        0x0 /GCC/lib/gcc/ppc-amigaos/4.2.4/newlib/lib/libstdc++.a(string-inst.o)
 _ZNSs7_M_dataEPc
                0x00000000        0x0 /GCC/lib/gcc/ppc-amigaos/4.2.4/newlib/lib/libstdc++.a(string-inst.o)
 _ZNKSs6_M_repEv
                0x00000000        0x0 /GCC/lib/gcc/ppc-amigaos/4.2.4/newlib/lib/libstdc++.a(string-inst.o)
 _ZNKSs9_M_ibeginEv
                0x00000000        0x0 /GCC/lib/gcc/ppc-amigaos/4.2.4/newlib/lib/libstdc++.a(string-inst.o)
 _ZNKSs7_M_iendEv
                0x00000000        0x0 /GCC/lib/gcc/ppc-amigaos/4.2.4/newlib/lib/libstdc++.a(string-inst.o)
 _ZNKSs8_M_limitEjj
                0x00000000        0x0 /GCC/lib/gcc/ppc-amigaos/4.2.4/newlib/lib/libstdc++.a(string-inst.o)
 _ZNKSs11_M_disjunctEPKc
                0x00000000        0x0 /GCC/lib/gcc/ppc-amigaos/4.2.4/newlib/lib/libstdc++.a(string-inst.o)
 _ZNSs12_S_empty_repEv
                0x00000000        0x0 /GCC/lib/gcc/ppc-amigaos/4.2.4/newlib/lib/libstdc++.a(string-inst.o)
 _ZNSsC1Ev      0x00000000        0x0 /GCC/lib/gcc/ppc-amigaos/4.2.4/newlib/lib/libstdc++.a(string-inst.o)
 _ZNKSs5beginEv
                0x00000000        0x0 /GCC/lib/gcc/ppc-amigaos/4.2.4/newlib/lib/libstdc++.a(string-inst.o)
 _ZNKSs3endEv   0x00000000        0x0 /GCC/lib/gcc/ppc-amigaos/4.2.4/newlib/lib/libstdc++.a(string-inst.o)
 _ZNKSs4sizeEv  0x00000000        0x0 /GCC/lib/gcc/ppc-amigaos/4.2.4/newlib/lib/libstdc++.a(string-inst.o)
 _ZNKSs8max_sizeEv
                0x00000000        0x0 /GCC/lib/gcc/ppc-amigaos/4.2.4/newlib/lib/libstdc++.a(string-inst.o)
 _ZNKSs8capacityEv
                0x00000000        0x0 /GCC/lib/gcc/ppc-amigaos/4.2.4/newlib/lib/libstdc++.a(string-inst.o)
 _ZNKSs4dataEv  0x00000000        0x0 /GCC/lib/gcc/ppc-amigaos/4.2.4/newlib/lib/libstdc++.a(string-inst.o)
 _ZNKSs13get_allocatorEv
                0x00000000        0x0 /GCC/lib/gcc/ppc-amigaos/4.2.4/newlib/lib/libstdc++.a(string-inst.o)
 _ZNSs12_Alloc_hiderC1EPcRKSaIcE
                0x00000000        0x0 /GCC/lib/gcc/ppc-amigaos/4.2.4/newlib/lib/libstdc++.a(string-inst.o)
 _ZNSs4_Rep12_S_empty_repEv
                0x00000000        0x0 /GCC/lib/gcc/ppc-amigaos/4.2.4/newlib/lib/libstdc++.a(string-inst.o)
 _ZNKSs4_Rep12_M_is_leakedEv
                0x00000000        0x0 /GCC/lib/gcc/ppc-amigaos/4.2.4/newlib/lib/libstdc++.a(string-inst.o)
 _ZNKSs4_Rep12_M_is_sharedEv
                0x00000000        0x0 /GCC/lib/gcc/ppc-amigaos/4.2.4/newlib/lib/libstdc++.a(string-inst.o)
 _ZNSs4_Rep13_M_set_leakedEv
                0x00000000        0x0 /GCC/lib/gcc/ppc-amigaos/4.2.4/newlib/lib/libstdc++.a(string-inst.o)
 _ZNSs4_Rep15_M_set_sharableEv
                0x00000000        0x0 /GCC/lib/gcc/ppc-amigaos/4.2.4/newlib/lib/libstdc++.a(string-inst.o)
 _ZNSs4_Rep26_M_set_length_and_sharableEj
                0x00000000        0x0 /GCC/lib/gcc/ppc-amigaos/4.2.4/newlib/lib/libstdc++.a(string-inst.o)
 _ZNSs4_Rep10_M_refdataEv
                0x00000000        0x0 /GCC/lib/gcc/ppc-amigaos/4.2.4/newlib/lib/libstdc++.a(string-inst.o)
 _ZN9__gnu_cxxeqIPcSsEEbRKNS_17__normal_iteratorIT_T0_EES7_
                0x00000000        0x0 /GCC/lib/gcc/ppc-amigaos/4.2.4/newlib/lib/libstdc++.a(string-inst.o)
 _ZNSs12_Alloc_hiderC2EPcRKSaIcE
                0x00000000        0x0 /GCC/lib/gcc/ppc-amigaos/4.2.4/newlib/lib/libstdc++.a(string-inst.o)
 _ZNSs4_Rep10_M_refcopyEv
                0x00000000        0x0 /GCC/lib/gcc/ppc-amigaos/4.2.4/newlib/lib/libstdc++.a(string-inst.o)
 _ZNKSs15_M_check_lengthEjjPKc
                0x00000000        0x0 /GCC/lib/gcc/ppc-amigaos/4.2.4/newlib/lib/libstdc++.a(string-inst.o)
 _ZNKSs8_M_checkEjPKc
                0x00000000        0x0 /GCC/lib/gcc/ppc-amigaos/4.2.4/newlib/lib/libstdc++.a(string-inst.o)
 _ZNSs9_M_assignEPcjc
                0x00000000        0x0 /GCC/lib/gcc/ppc-amigaos/4.2.4/newlib/lib/libstdc++.a(string-inst.o)
 _ZNSs7_M_moveEPcPKcj
                0x00000000        0x0 /GCC/lib/gcc/ppc-amigaos/4.2.4/newlib/lib/libstdc++.a(string-inst.o)
 _ZNSs7_M_copyEPcPKcj
                0x00000000        0x0 /GCC/lib/gcc/ppc-amigaos/4.2.4/newlib/lib/libstdc++.a(string-inst.o)
 _ZNKSs5c_strEv
                0x00000000        0x0 /GCC/lib/gcc/ppc-amigaos/4.2.4/newlib/lib/libstdc++.a(string-inst.o)
 _ZNKSsixEj     0x00000000        0x0 /GCC/lib/gcc/ppc-amigaos/4.2.4/newlib/lib/libstdc++.a(string-inst.o)
 _ZNKSs4findEcj
                0x00000000        0x0 /GCC/lib/gcc/ppc-amigaos/4.2.4/newlib/lib/libstdc++.a(string-inst.o)
 _ZNKSs13find_first_ofEcj
                0x00000000        0x0 /GCC/lib/gcc/ppc-amigaos/4.2.4/newlib/lib/libstdc++.a(string-inst.o)
 _ZNKSs2atEj    0x00000000        0x0 /GCC/lib/gcc/ppc-amigaos/4.2.4/newlib/lib/libstdc++.a(string-inst.o)
 _ZNKSs5emptyEv
                0x00000000        0x0 /GCC/lib/gcc/ppc-amigaos/4.2.4/newlib/lib/libstdc++.a(string-inst.o)
 _ZNKSs6lengthEv
                0x00000000        0x0 /GCC/lib/gcc/ppc-amigaos/4.2.4/newlib/lib/libstdc++.a(string-inst.o)
 _ZNSsC2Ev      0x00000000        0x0 /GCC/lib/gcc/ppc-amigaos/4.2.4/newlib/lib/libstdc++.a(string-inst.o)
 _ZN9__gnu_cxxeqIPKcSsEEbRKNS_17__normal_iteratorIT_T0_EES8_
                0x00000000        0x0 /GCC/lib/gcc/ppc-amigaos/4.2.4/newlib/lib/libstdc++.a(string-inst.o)
 _ZNKSs16find_last_not_ofEcj
                0x00000000        0x0 /GCC/lib/gcc/ppc-amigaos/4.2.4/newlib/lib/libstdc++.a(string-inst.o)
 _ZNKSs17find_first_not_ofEcj
                0x00000000        0x0 /GCC/lib/gcc/ppc-amigaos/4.2.4/newlib/lib/libstdc++.a(string-inst.o)
 _ZNKSs5rfindEcj
                0x00000000        0x0 /GCC/lib/gcc/ppc-amigaos/4.2.4/newlib/lib/libstdc++.a(string-inst.o)
 _ZNKSs12find_last_ofEcj
                0x00000000        0x0 /GCC/lib/gcc/ppc-amigaos/4.2.4/newlib/lib/libstdc++.a(string-inst.o)
 _ZNSs4_Rep9_S_createEjjRKSaIcE
                0x00000000        0x0 /GCC/lib/gcc/ppc-amigaos/4.2.4/newlib/lib/libstdc++.a(string-inst.o)
 _ZNSs4_Rep10_M_destroyERKSaIcE
                0x00000000        0x0 /GCC/lib/gcc/ppc-amigaos/4.2.4/newlib/lib/libstdc++.a(string-inst.o)
 _ZNSs4_Rep10_M_disposeERKSaIcE
                0x00000000        0x0 /GCC/lib/gcc/ppc-amigaos/4.2.4/newlib/lib/libstdc++.a(string-inst.o)
 _ZNKSs16find_last_not_ofEPKcjj
                0x00000000        0x0 /GCC/lib/gcc/ppc-amigaos/4.2.4/newlib/lib/libstdc++.a(string-inst.o)
 _ZNKSs16find_last_not_ofERKSsj
                0x00000000        0x0 /GCC/lib/gcc/ppc-amigaos/4.2.4/newlib/lib/libstdc++.a(string-inst.o)
 _ZNKSs17find_first_not_ofEPKcjj
                0x00000000        0x0 /GCC/lib/gcc/ppc-amigaos/4.2.4/newlib/lib/libstdc++.a(string-inst.o)
 _ZNKSs17find_first_not_ofERKSsj
                0x00000000        0x0 /GCC/lib/gcc/ppc-amigaos/4.2.4/newlib/lib/libstdc++.a(string-inst.o)
 _ZNKSs12find_last_ofEPKcjj
                0x00000000        0x0 /GCC/lib/gcc/ppc-amigaos/4.2.4/newlib/lib/libstdc++.a(string-inst.o)
 _ZNKSs12find_last_ofERKSsj
                0x00000000        0x0 /GCC/lib/gcc/ppc-amigaos/4.2.4/newlib/lib/libstdc++.a(string-inst.o)
 _ZNKSs13find_first_ofEPKcjj
                0x00000000        0x0 /GCC/lib/gcc/ppc-amigaos/4.2.4/newlib/lib/libstdc++.a(string-inst.o)
 _ZNKSs13find_first_ofERKSsj
                0x00000000        0x0 /GCC/lib/gcc/ppc-amigaos/4.2.4/newlib/lib/libstdc++.a(string-inst.o)
 _ZNKSs7compareERKSs
                0x00000000        0x0 /GCC/lib/gcc/ppc-amigaos/4.2.4/newlib/lib/libstdc++.a(string-inst.o)
 _ZNKSs5rfindEPKcjj
                0x00000000        0x0 /GCC/lib/gcc/ppc-amigaos/4.2.4/newlib/lib/libstdc++.a(string-inst.o)
 _ZNKSs5rfindERKSsj
                0x00000000        0x0 /GCC/lib/gcc/ppc-amigaos/4.2.4/newlib/lib/libstdc++.a(string-inst.o)
 _ZNKSs4findEPKcjj
                0x00000000        0x0 /GCC/lib/gcc/ppc-amigaos/4.2.4/newlib/lib/libstdc++.a(string-inst.o)
 _ZNKSs4findERKSsj
                0x00000000        0x0 /GCC/lib/gcc/ppc-amigaos/4.2.4/newlib/lib/libstdc++.a(string-inst.o)
 _ZNKSs7compareEPKc
                0x00000000        0x0 /GCC/lib/gcc/ppc-amigaos/4.2.4/newlib/lib/libstdc++.a(string-inst.o)
 _ZNKSs16find_last_not_ofEPKcj
                0x00000000        0x0 /GCC/lib/gcc/ppc-amigaos/4.2.4/newlib/lib/libstdc++.a(string-inst.o)
 _ZNKSs17find_first_not_ofEPKcj
                0x00000000        0x0 /GCC/lib/gcc/ppc-amigaos/4.2.4/newlib/lib/libstdc++.a(string-inst.o)
 _ZNKSs12find_last_ofEPKcj
                0x00000000        0x0 /GCC/lib/gcc/ppc-amigaos/4.2.4/newlib/lib/libstdc++.a(string-inst.o)
 _ZNKSs13find_first_ofEPKcj
                0x00000000        0x0 /GCC/lib/gcc/ppc-amigaos/4.2.4/newlib/lib/libstdc++.a(string-inst.o)
 _ZNKSs5rfindEPKcj
                0x00000000        0x0 /GCC/lib/gcc/ppc-amigaos/4.2.4/newlib/lib/libstdc++.a(string-inst.o)
 _ZNKSs4findEPKcj
                0x00000000        0x0 /GCC/lib/gcc/ppc-amigaos/4.2.4/newlib/lib/libstdc++.a(string-inst.o)
 _ZNKSs4rendEv  0x00000000        0x0 /GCC/lib/gcc/ppc-amigaos/4.2.4/newlib/lib/libstdc++.a(string-inst.o)
 _ZNKSs6rbeginEv
                0x00000000        0x0 /GCC/lib/gcc/ppc-amigaos/4.2.4/newlib/lib/libstdc++.a(string-inst.o)
 _ZNSs12_S_constructEjcRKSaIcE
                0x00000000        0x0 /GCC/lib/gcc/ppc-amigaos/4.2.4/newlib/lib/libstdc++.a(string-inst.o)
 _ZNSsC1EjcRKSaIcE
                0x00000000        0x0 /GCC/lib/gcc/ppc-amigaos/4.2.4/newlib/lib/libstdc++.a(string-inst.o)
 _ZNSsC2EjcRKSaIcE
                0x00000000        0x0 /GCC/lib/gcc/ppc-amigaos/4.2.4/newlib/lib/libstdc++.a(string-inst.o)
 _ZNSsC1ERKSaIcE
                0x00000000        0x0 /GCC/lib/gcc/ppc-amigaos/4.2.4/newlib/lib/libstdc++.a(string-inst.o)
 _ZNSsC2ERKSaIcE
                0x00000000        0x0 /GCC/lib/gcc/ppc-amigaos/4.2.4/newlib/lib/libstdc++.a(string-inst.o)
 _ZNKSs7compareEjjPKcj
                0x00000000        0x0 /GCC/lib/gcc/ppc-amigaos/4.2.4/newlib/lib/libstdc++.a(string-inst.o)
 _ZNKSs7compareEjjPKc
                0x00000000        0x0 /GCC/lib/gcc/ppc-amigaos/4.2.4/newlib/lib/libstdc++.a(string-inst.o)
 _ZNKSs7compareEjjRKSsjj
                0x00000000        0x0 /GCC/lib/gcc/ppc-amigaos/4.2.4/newlib/lib/libstdc++.a(string-inst.o)
 _ZNKSs7compareEjjRKSs
                0x00000000        0x0 /GCC/lib/gcc/ppc-amigaos/4.2.4/newlib/lib/libstdc++.a(string-inst.o)
 _ZNSsD1Ev      0x00000000        0x0 /GCC/lib/gcc/ppc-amigaos/4.2.4/newlib/lib/libstdc++.a(string-inst.o)
 _ZNSsD2Ev      0x00000000        0x0 /GCC/lib/gcc/ppc-amigaos/4.2.4/newlib/lib/libstdc++.a(string-inst.o)
 _ZNSs13_S_copy_charsEPcS_S_
                0x00000000        0x0 /GCC/lib/gcc/ppc-amigaos/4.2.4/newlib/lib/libstdc++.a(string-inst.o)
 _ZNSs4_Rep8_M_cloneERKSaIcEj
                0x00000000        0x0 /GCC/lib/gcc/ppc-amigaos/4.2.4/newlib/lib/libstdc++.a(string-inst.o)
 _ZNSs4_Rep7_M_grabERKSaIcES2_
                0x00000000        0x0 /GCC/lib/gcc/ppc-amigaos/4.2.4/newlib/lib/libstdc++.a(string-inst.o)
 _ZNSs7reserveEj
                0x00000000        0x0 /GCC/lib/gcc/ppc-amigaos/4.2.4/newlib/lib/libstdc++.a(string-inst.o)
 _ZNSs9push_backEc
                0x00000000        0x0 /GCC/lib/gcc/ppc-amigaos/4.2.4/newlib/lib/libstdc++.a(string-inst.o)
 _ZNSs6appendEjc
                0x00000000        0x0 /GCC/lib/gcc/ppc-amigaos/4.2.4/newlib/lib/libstdc++.a(string-inst.o)
 _ZNSspLEc      0x00000000        0x0 /GCC/lib/gcc/ppc-amigaos/4.2.4/newlib/lib/libstdc++.a(string-inst.o)
 _ZNKSs4copyEPcjj
                0x00000000        0x0 /GCC/lib/gcc/ppc-amigaos/4.2.4/newlib/lib/libstdc++.a(string-inst.o)
 _ZNSs6appendEPKcj
                0x00000000        0x0 /GCC/lib/gcc/ppc-amigaos/4.2.4/newlib/lib/libstdc++.a(string-inst.o)
 _ZNSs6appendEPKc
                0x00000000        0x0 /GCC/lib/gcc/ppc-amigaos/4.2.4/newlib/lib/libstdc++.a(string-inst.o)
 _ZNSspLEPKc    0x00000000        0x0 /GCC/lib/gcc/ppc-amigaos/4.2.4/newlib/lib/libstdc++.a(string-inst.o)
 _ZNSs6appendERKSsjj
                0x00000000        0x0 /GCC/lib/gcc/ppc-amigaos/4.2.4/newlib/lib/libstdc++.a(string-inst.o)
 _ZNSs6appendERKSs
                0x00000000        0x0 /GCC/lib/gcc/ppc-amigaos/4.2.4/newlib/lib/libstdc++.a(string-inst.o)
 _ZNSspLERKSs   0x00000000        0x0 /GCC/lib/gcc/ppc-amigaos/4.2.4/newlib/lib/libstdc++.a(string-inst.o)
 _ZNSs9_M_mutateEjjj
                0x00000000        0x0 /GCC/lib/gcc/ppc-amigaos/4.2.4/newlib/lib/libstdc++.a(string-inst.o)
 _ZNSs15_M_replace_safeEjjPKcj
                0x00000000        0x0 /GCC/lib/gcc/ppc-amigaos/4.2.4/newlib/lib/libstdc++.a(string-inst.o)
 _ZNSs6assignEPKcj
                0x00000000        0x0 /GCC/lib/gcc/ppc-amigaos/4.2.4/newlib/lib/libstdc++.a(string-inst.o)
 _ZNSs6assignEPKc
                0x00000000        0x0 /GCC/lib/gcc/ppc-amigaos/4.2.4/newlib/lib/libstdc++.a(string-inst.o)
 _ZNSs6assignERKSsjj
                0x00000000        0x0 /GCC/lib/gcc/ppc-amigaos/4.2.4/newlib/lib/libstdc++.a(string-inst.o)
 _ZNSsaSEPKc    0x00000000        0x0 /GCC/lib/gcc/ppc-amigaos/4.2.4/newlib/lib/libstdc++.a(string-inst.o)
 _ZNSs14_M_replace_auxEjjjc
                0x00000000        0x0 /GCC/lib/gcc/ppc-amigaos/4.2.4/newlib/lib/libstdc++.a(string-inst.o)
 _ZNSs7replaceEN9__gnu_cxx17__normal_iteratorIPcSsEES2_jc
                0x00000000        0x0 /GCC/lib/gcc/ppc-amigaos/4.2.4/newlib/lib/libstdc++.a(string-inst.o)
 _ZNSs7replaceEjjjc
                0x00000000        0x0 /GCC/lib/gcc/ppc-amigaos/4.2.4/newlib/lib/libstdc++.a(string-inst.o)
 _ZNSs6insertEN9__gnu_cxx17__normal_iteratorIPcSsEEc
                0x00000000        0x0 /GCC/lib/gcc/ppc-amigaos/4.2.4/newlib/lib/libstdc++.a(string-inst.o)
 _ZNSs6insertEjjc
                0x00000000        0x0 /GCC/lib/gcc/ppc-amigaos/4.2.4/newlib/lib/libstdc++.a(string-inst.o)
 _ZNSs6assignEjc
                0x00000000        0x0 /GCC/lib/gcc/ppc-amigaos/4.2.4/newlib/lib/libstdc++.a(string-inst.o)
 _ZNSsaSEc      0x00000000        0x0 /GCC/lib/gcc/ppc-amigaos/4.2.4/newlib/lib/libstdc++.a(string-inst.o)
 _ZNSs6insertEN9__gnu_cxx17__normal_iteratorIPcSsEEjc
                0x00000000        0x0 /GCC/lib/gcc/ppc-amigaos/4.2.4/newlib/lib/libstdc++.a(string-inst.o)
 _ZNSs5eraseEN9__gnu_cxx17__normal_iteratorIPcSsEES2_
                0x00000000        0x0 /GCC/lib/gcc/ppc-amigaos/4.2.4/newlib/lib/libstdc++.a(string-inst.o)
 _ZNSs5eraseEN9__gnu_cxx17__normal_iteratorIPcSsEE
                0x00000000        0x0 /GCC/lib/gcc/ppc-amigaos/4.2.4/newlib/lib/libstdc++.a(string-inst.o)
 _ZNSs5eraseEjj
                0x00000000        0x0 /GCC/lib/gcc/ppc-amigaos/4.2.4/newlib/lib/libstdc++.a(string-inst.o)
 _ZNSs6insertEjPKcj
                0x00000000        0x0 /GCC/lib/gcc/ppc-amigaos/4.2.4/newlib/lib/libstdc++.a(string-inst.o)
 _ZNSs6insertEjPKc
                0x00000000        0x0 /GCC/lib/gcc/ppc-amigaos/4.2.4/newlib/lib/libstdc++.a(string-inst.o)
 _ZNSs6insertEjRKSsjj
                0x00000000        0x0 /GCC/lib/gcc/ppc-amigaos/4.2.4/newlib/lib/libstdc++.a(string-inst.o)
 _ZNSs6insertEjRKSs
                0x00000000        0x0 /GCC/lib/gcc/ppc-amigaos/4.2.4/newlib/lib/libstdc++.a(string-inst.o)
 _ZNSs5clearEv  0x00000000        0x0 /GCC/lib/gcc/ppc-amigaos/4.2.4/newlib/lib/libstdc++.a(string-inst.o)
 _ZNSs12_M_leak_hardEv
                0x00000000        0x0 /GCC/lib/gcc/ppc-amigaos/4.2.4/newlib/lib/libstdc++.a(string-inst.o)
 _ZNSs7_M_leakEv
                0x00000000        0x0 /GCC/lib/gcc/ppc-amigaos/4.2.4/newlib/lib/libstdc++.a(string-inst.o)
 _ZNSs2atEj     0x00000000        0x0 /GCC/lib/gcc/ppc-amigaos/4.2.4/newlib/lib/libstdc++.a(string-inst.o)
 _ZNSsixEj      0x00000000        0x0 /GCC/lib/gcc/ppc-amigaos/4.2.4/newlib/lib/libstdc++.a(string-inst.o)
 _ZNSs3endEv    0x00000000        0x0 /GCC/lib/gcc/ppc-amigaos/4.2.4/newlib/lib/libstdc++.a(string-inst.o)
 _ZNSs5beginEv  0x00000000        0x0 /GCC/lib/gcc/ppc-amigaos/4.2.4/newlib/lib/libstdc++.a(string-inst.o)
 _ZNSs4rendEv   0x00000000        0x0 /GCC/lib/gcc/ppc-amigaos/4.2.4/newlib/lib/libstdc++.a(string-inst.o)
 _ZNSs6rbeginEv
                0x00000000        0x0 /GCC/lib/gcc/ppc-amigaos/4.2.4/newlib/lib/libstdc++.a(string-inst.o)
 _ZNSs6resizeEjc
                0x00000000        0x0 /GCC/lib/gcc/ppc-amigaos/4.2.4/newlib/lib/libstdc++.a(string-inst.o)
 _ZNSs6resizeEj
                0x00000000        0x0 /GCC/lib/gcc/ppc-amigaos/4.2.4/newlib/lib/libstdc++.a(string-inst.o)
 _ZNSs13_S_copy_charsEPcPKcS1_
                0x00000000        0x0 /GCC/lib/gcc/ppc-amigaos/4.2.4/newlib/lib/libstdc++.a(string-inst.o)
 _ZNSs13_S_copy_charsEPcN9__gnu_cxx17__normal_iteratorIPKcSsEES4_
                0x00000000        0x0 /GCC/lib/gcc/ppc-amigaos/4.2.4/newlib/lib/libstdc++.a(string-inst.o)
 _ZNSs13_S_copy_charsEPcN9__gnu_cxx17__normal_iteratorIS_SsEES2_
                0x00000000        0x0 /GCC/lib/gcc/ppc-amigaos/4.2.4/newlib/lib/libstdc++.a(string-inst.o)
 _ZNSs12_S_constructIPKcEEPcT_S3_RKSaIcESt20forward_iterator_tag
                0x00000000        0x0 /GCC/lib/gcc/ppc-amigaos/4.2.4/newlib/lib/libstdc++.a(string-inst.o)
 _ZNSsC2EPKcRKSaIcE
                0x00000000        0x0 /GCC/lib/gcc/ppc-amigaos/4.2.4/newlib/lib/libstdc++.a(string-inst.o)
 _ZNSsC1IPKcEET_S2_RKSaIcE
                0x00000000        0x0 /GCC/lib/gcc/ppc-amigaos/4.2.4/newlib/lib/libstdc++.a(string-inst.o)
 _ZNSsC2IPKcEET_S2_RKSaIcE
                0x00000000        0x0 /GCC/lib/gcc/ppc-amigaos/4.2.4/newlib/lib/libstdc++.a(string-inst.o)
 _ZNSsC1EPKcRKSaIcE
                0x00000000        0x0 /GCC/lib/gcc/ppc-amigaos/4.2.4/newlib/lib/libstdc++.a(string-inst.o)
 _ZNSsC1EPKcjRKSaIcE
                0x00000000        0x0 /GCC/lib/gcc/ppc-amigaos/4.2.4/newlib/lib/libstdc++.a(string-inst.o)
 _ZNSsC2EPKcjRKSaIcE
                0x00000000        0x0 /GCC/lib/gcc/ppc-amigaos/4.2.4/newlib/lib/libstdc++.a(string-inst.o)
 _ZNSs12_S_constructIPcEES0_T_S1_RKSaIcESt20forward_iterator_tag
                0x00000000        0x0 /GCC/lib/gcc/ppc-amigaos/4.2.4/newlib/lib/libstdc++.a(string-inst.o)
 _ZNSsC2ERKSsjj
                0x00000000        0x0 /GCC/lib/gcc/ppc-amigaos/4.2.4/newlib/lib/libstdc++.a(string-inst.o)
 _ZNSsC1IPcEET_S1_RKSaIcE
                0x00000000        0x0 /GCC/lib/gcc/ppc-amigaos/4.2.4/newlib/lib/libstdc++.a(string-inst.o)
 _ZNSsC1ERKSsjj
                0x00000000        0x0 /GCC/lib/gcc/ppc-amigaos/4.2.4/newlib/lib/libstdc++.a(string-inst.o)
 _ZNKSs6substrEjj
                0x00000000        0x0 /GCC/lib/gcc/ppc-amigaos/4.2.4/newlib/lib/libstdc++.a(string-inst.o)
 _ZNSsC1ERKSsjjRKSaIcE
                0x00000000        0x0 /GCC/lib/gcc/ppc-amigaos/4.2.4/newlib/lib/libstdc++.a(string-inst.o)
 _ZNSsC2ERKSsjjRKSaIcE
                0x00000000        0x0 /GCC/lib/gcc/ppc-amigaos/4.2.4/newlib/lib/libstdc++.a(string-inst.o)
 _ZNSsC2IPcEET_S1_RKSaIcE
                0x00000000        0x0 /GCC/lib/gcc/ppc-amigaos/4.2.4/newlib/lib/libstdc++.a(string-inst.o)
 _ZNSs12_S_constructIN9__gnu_cxx17__normal_iteratorIPcSsEEEES2_T_S4_RKSaIcESt20forward_iterator_tag
                0x00000000        0x0 /GCC/lib/gcc/ppc-amigaos/4.2.4/newlib/lib/libstdc++.a(string-inst.o)
 _ZNSsC1IN9__gnu_cxx17__normal_iteratorIPcSsEEEET_S4_RKSaIcE
                0x00000000        0x0 /GCC/lib/gcc/ppc-amigaos/4.2.4/newlib/lib/libstdc++.a(string-inst.o)
 _ZNSsC2IN9__gnu_cxx17__normal_iteratorIPcSsEEEET_S4_RKSaIcE
                0x00000000        0x0 /GCC/lib/gcc/ppc-amigaos/4.2.4/newlib/lib/libstdc++.a(string-inst.o)
 _ZNSs6assignERKSs
                0x00000000        0x0 /GCC/lib/gcc/ppc-amigaos/4.2.4/newlib/lib/libstdc++.a(string-inst.o)
 _ZNSsaSERKSs   0x00000000        0x0 /GCC/lib/gcc/ppc-amigaos/4.2.4/newlib/lib/libstdc++.a(string-inst.o)
 _ZNSsC1ERKSs   0x00000000        0x0 /GCC/lib/gcc/ppc-amigaos/4.2.4/newlib/lib/libstdc++.a(string-inst.o)
 _ZNSsC2ERKSs   0x00000000        0x0 /GCC/lib/gcc/ppc-amigaos/4.2.4/newlib/lib/libstdc++.a(string-inst.o)
 _ZStplIcSt11char_traitsIcESaIcEESbIT_T0_T1_ERKS6_S8_
                0x00000000        0x0 /GCC/lib/gcc/ppc-amigaos/4.2.4/newlib/lib/libstdc++.a(string-inst.o)
 _ZNSs7replaceEjjPKcj
                0x00000000        0x0 /GCC/lib/gcc/ppc-amigaos/4.2.4/newlib/lib/libstdc++.a(string-inst.o)
 _ZNSs7replaceEN9__gnu_cxx17__normal_iteratorIPcSsEES2_NS0_IPKcSsEES5_
                0x00000000        0x0 /GCC/lib/gcc/ppc-amigaos/4.2.4/newlib/lib/libstdc++.a(string-inst.o)
 _ZNSs7replaceEN9__gnu_cxx17__normal_iteratorIPcSsEES2_S2_S2_
                0x00000000        0x0 /GCC/lib/gcc/ppc-amigaos/4.2.4/newlib/lib/libstdc++.a(string-inst.o)
 _ZNSs7replaceEN9__gnu_cxx17__normal_iteratorIPcSsEES2_PKcS4_
                0x00000000        0x0 /GCC/lib/gcc/ppc-amigaos/4.2.4/newlib/lib/libstdc++.a(string-inst.o)
 _ZNSs7replaceEN9__gnu_cxx17__normal_iteratorIPcSsEES2_S1_S1_
                0x00000000        0x0 /GCC/lib/gcc/ppc-amigaos/4.2.4/newlib/lib/libstdc++.a(string-inst.o)
 _ZNSs7replaceEN9__gnu_cxx17__normal_iteratorIPcSsEES2_PKcj
                0x00000000        0x0 /GCC/lib/gcc/ppc-amigaos/4.2.4/newlib/lib/libstdc++.a(string-inst.o)
 _ZNSs7replaceEjjPKc
                0x00000000        0x0 /GCC/lib/gcc/ppc-amigaos/4.2.4/newlib/lib/libstdc++.a(string-inst.o)
 _ZNSs7replaceEjjRKSsjj
                0x00000000        0x0 /GCC/lib/gcc/ppc-amigaos/4.2.4/newlib/lib/libstdc++.a(string-inst.o)
 _ZNSs7replaceEjjRKSs
                0x00000000        0x0 /GCC/lib/gcc/ppc-amigaos/4.2.4/newlib/lib/libstdc++.a(string-inst.o)
 _ZNSs7replaceEN9__gnu_cxx17__normal_iteratorIPcSsEES2_PKc
                0x00000000        0x0 /GCC/lib/gcc/ppc-amigaos/4.2.4/newlib/lib/libstdc++.a(string-inst.o)
 _ZNSs7replaceEN9__gnu_cxx17__normal_iteratorIPcSsEES2_RKSs
                0x00000000        0x0 /GCC/lib/gcc/ppc-amigaos/4.2.4/newlib/lib/libstdc++.a(string-inst.o)
 _ZStplIcSt11char_traitsIcESaIcEESbIT_T0_T1_ES3_RKS6_
                0x00000000        0x0 /GCC/lib/gcc/ppc-amigaos/4.2.4/newlib/lib/libstdc++.a(string-inst.o)
 _ZStplIcSt11char_traitsIcESaIcEESbIT_T0_T1_EPKS3_RKS6_
                0x00000000        0x0 /GCC/lib/gcc/ppc-amigaos/4.2.4/newlib/lib/libstdc++.a(string-inst.o)
 _ZNSs4swapERSs
                0x00000000        0x0 /GCC/lib/gcc/ppc-amigaos/4.2.4/newlib/lib/libstdc++.a(string-inst.o)
 _ZNSs4nposE    0x00000000        0x0 /GCC/lib/gcc/ppc-amigaos/4.2.4/newlib/lib/libstdc++.a(string-inst.o)
 _ZNSs4_Rep11_S_max_sizeE
                0x00000000        0x0 /GCC/lib/gcc/ppc-amigaos/4.2.4/newlib/lib/libstdc++.a(string-inst.o)
 _ZNSs4_Rep11_S_terminalE
                0x00000000        0x0 /GCC/lib/gcc/ppc-amigaos/4.2.4/newlib/lib/libstdc++.a(string-inst.o)
 _ZNSs4_Rep20_S_empty_rep_storageE
                0x00000000        0x0 /GCC/lib/gcc/ppc-amigaos/4.2.4/newlib/lib/libstdc++.a(string-inst.o)
 _ZTVSt13bad_exception
                0x00000000        0x0 /GCC/lib/gcc/ppc-amigaos/4.2.4/newlib/lib/libstdc++.a(eh_exception.o)
 _ZTVSt9exception
                0x00000000        0x0 /GCC/lib/gcc/ppc-amigaos/4.2.4/newlib/lib/libstdc++.a(eh_exception.o)
 _ZTSSt13bad_exception
                0x00000000        0x0 /GCC/lib/gcc/ppc-amigaos/4.2.4/newlib/lib/libstdc++.a(eh_exception.o)
 _ZTISt13bad_exception
                0x00000000        0x0 /GCC/lib/gcc/ppc-amigaos/4.2.4/newlib/lib/libstdc++.a(eh_exception.o)
 _ZTSSt9exception
                0x00000000        0x0 /GCC/lib/gcc/ppc-amigaos/4.2.4/newlib/lib/libstdc++.a(eh_exception.o)
 _ZTISt9exception
                0x00000000        0x0 /GCC/lib/gcc/ppc-amigaos/4.2.4/newlib/lib/libstdc++.a(eh_exception.o)
 _ZTVSt9bad_alloc
                0x00000000        0x0 /GCC/lib/gcc/ppc-amigaos/4.2.4/newlib/lib/libstdc++.a(new_handler.o)
 _ZTSSt9bad_alloc
                0x00000000        0x0 /GCC/lib/gcc/ppc-amigaos/4.2.4/newlib/lib/libstdc++.a(new_handler.o)
 _ZTISt9bad_alloc
                0x00000000        0x0 /GCC/lib/gcc/ppc-amigaos/4.2.4/newlib/lib/libstdc++.a(new_handler.o)
 DW.ref._ZTISt9bad_alloc
                0x00000000        0x0 /GCC/lib/gcc/ppc-amigaos/4.2.4/newlib/lib/libstdc++.a(new_op.o)
 DW.ref._ZTISt9bad_alloc
                0x00000000        0x0 /GCC/lib/gcc/ppc-amigaos/4.2.4/newlib/lib/libstdc++.a(new_opv.o)
 .sdata.DW.ref._ZTISt9bad_alloc
                0x00000000        0x0 /GCC/lib/gcc/ppc-amigaos/4.2.4/newlib/lib/libstdc++.a(new_opv.o)
 _ZTVN10__cxxabiv121__vmi_class_type_infoE
                0x00000000        0x0 /GCC/lib/gcc/ppc-amigaos/4.2.4/newlib/lib/libstdc++.a(tinfo.o)
 _ZTVN10__cxxabiv120__si_class_type_infoE
                0x00000000        0x0 /GCC/lib/gcc/ppc-amigaos/4.2.4/newlib/lib/libstdc++.a(tinfo.o)
 _ZTVN10__cxxabiv117__class_type_infoE
                0x00000000        0x0 /GCC/lib/gcc/ppc-amigaos/4.2.4/newlib/lib/libstdc++.a(tinfo.o)
 _ZTVSt10bad_typeid
                0x00000000        0x0 /GCC/lib/gcc/ppc-amigaos/4.2.4/newlib/lib/libstdc++.a(tinfo.o)
 _ZTVSt8bad_cast
                0x00000000        0x0 /GCC/lib/gcc/ppc-amigaos/4.2.4/newlib/lib/libstdc++.a(tinfo.o)
 _ZTVSt9type_info
                0x00000000        0x0 /GCC/lib/gcc/ppc-amigaos/4.2.4/newlib/lib/libstdc++.a(tinfo.o)
 _ZTSN10__cxxabiv121__vmi_class_type_infoE
                0x00000000        0x0 /GCC/lib/gcc/ppc-amigaos/4.2.4/newlib/lib/libstdc++.a(tinfo.o)
 _ZTIN10__cxxabiv121__vmi_class_type_infoE
                0x00000000        0x0 /GCC/lib/gcc/ppc-amigaos/4.2.4/newlib/lib/libstdc++.a(tinfo.o)
 _ZTSN10__cxxabiv120__si_class_type_infoE
                0x00000000        0x0 /GCC/lib/gcc/ppc-amigaos/4.2.4/newlib/lib/libstdc++.a(tinfo.o)
 _ZTIN10__cxxabiv120__si_class_type_infoE
                0x00000000        0x0 /GCC/lib/gcc/ppc-amigaos/4.2.4/newlib/lib/libstdc++.a(tinfo.o)
 _ZTSN10__cxxabiv117__class_type_infoE
                0x00000000        0x0 /GCC/lib/gcc/ppc-amigaos/4.2.4/newlib/lib/libstdc++.a(tinfo.o)
 _ZTIN10__cxxabiv117__class_type_infoE
                0x00000000        0x0 /GCC/lib/gcc/ppc-amigaos/4.2.4/newlib/lib/libstdc++.a(tinfo.o)
 _ZTSSt10bad_typeid
                0x00000000        0x0 /GCC/lib/gcc/ppc-amigaos/4.2.4/newlib/lib/libstdc++.a(tinfo.o)
 _ZTISt10bad_typeid
                0x00000000        0x0 /GCC/lib/gcc/ppc-amigaos/4.2.4/newlib/lib/libstdc++.a(tinfo.o)
 _ZTSSt8bad_cast
                0x00000000        0x0 /GCC/lib/gcc/ppc-amigaos/4.2.4/newlib/lib/libstdc++.a(tinfo.o)
 _ZTISt8bad_cast
                0x00000000        0x0 /GCC/lib/gcc/ppc-amigaos/4.2.4/newlib/lib/libstdc++.a(tinfo.o)
 _ZTSSt9type_info
                0x00000000        0x0 /GCC/lib/gcc/ppc-amigaos/4.2.4/newlib/lib/libstdc++.a(tinfo.o)
 _ZTISt9type_info
                0x00000000        0x0 /GCC/lib/gcc/ppc-amigaos/4.2.4/newlib/lib/libstdc++.a(tinfo.o)
 DW.ref._ZTISt9exception
                0x00000000        0x0 /GCC/lib/gcc/ppc-amigaos/4.2.4/newlib/lib/libstdc++.a(vterminate.o)

Memory Configuration

Name             Origin             Length             Attributes
*default*        0x00000000         0xffffffff

Linker script and memory map

                0x00000001                __amigaos4__ = 0x1
LOAD ipp_dev.o
LOAD dev_68k.o
LOAD ../ipr/ipr.o
LOAD ../ipr/iprutil.o
LOAD ../ipr/AttrGroups.o
LOAD ../cups/libcups.a
LOAD /SDK/local/newlib/lib/libssl.a
LOAD /SDK/local/newlib/lib/libcrypto.a
LOAD /SDK/local/newlib/lib/libz.a
LOAD /SDK/local/newlib/lib/libregex.a
LOAD /GCC/lib/gcc/ppc-amigaos/4.2.4/newlib/lib/libstdc++.a
LOAD /GCC/lib/gcc/ppc-amigaos/4.2.4/newlib/lib/libstdc++.a
LOAD /SDK/newlib/lib/libm.a
LOAD /GCC/lib/gcc/ppc-amigaos/4.2.4/newlib/lib/libgcc.a
LOAD /GCC/lib/gcc/ppc-amigaos/4.2.4/newlib/lib/libgcc_eh.a
START GROUP
LOAD /SDK/newlib/lib/libc.a
END GROUP
LOAD /GCC/lib/gcc/ppc-amigaos/4.2.4/newlib/lib/libgcc.a
LOAD /GCC/lib/gcc/ppc-amigaos/4.2.4/newlib/lib/libgcc_eh.a
                0x01000000                PROVIDE (__executable_start, 0x1000000)
                0x01000054                . = (0x1000000 + SIZEOF_HEADERS)

.interp
 *(.interp)

.note.gnu.build-id
 *(.note.gnu.build-id)

.hash
 *(.hash)

.gnu.hash
 *(.gnu.hash)

.dynsym
 *(.dynsym)

.dynstr
 *(.dynstr)

.gnu.version
 *(.gnu.version)

.gnu.version_d
 *(.gnu.version_d)

.gnu.version_r
 *(.gnu.version_r)

.rela.dyn       0x01000054        0x0
 .rela.got2     0x00000000        0x0 ipp_dev.o
 .rela.gcc_except_table
                0x00000000        0x0 ipp_dev.o

.rel.init
 *(.rel.init)

.rela.init
 *(.rela.init)

.rel.text
 *(.rel.text .rel.text.* .rel.gnu.linkonce.t.*)

.rela.text      0x01000054        0x0
 *(.rela.text .rela.text.* .rela.gnu.linkonce.t.*)
 .rela.text     0x00000000        0x0 ipp_dev.o
 .rela.text._ZSt18__throw_bad_typeidv
                0x00000000        0x0 ipp_dev.o
 .rela.text._ZSt16__throw_bad_castv
                0x00000000        0x0 ipp_dev.o
 .rela.text._ZSt17__throw_bad_allocv
                0x00000000        0x0 ipp_dev.o
 .rela.text._ZSt21__throw_bad_exceptionv
                0x00000000        0x0 ipp_dev.o
 .rela.text._ZNSt15underflow_errorD0Ev
                0x00000000        0x0 ipp_dev.o
 .rela.text._ZNSt15underflow_errorD1Ev
                0x00000000        0x0 ipp_dev.o
 .rela.text._ZNSt14overflow_errorD0Ev
                0x00000000        0x0 ipp_dev.o
 .rela.text._ZNSt14overflow_errorD1Ev
                0x00000000        0x0 ipp_dev.o
 .rela.text._ZNSt11range_errorD0Ev
                0x00000000        0x0 ipp_dev.o
 .rela.text._ZNSt11range_errorD1Ev
                0x00000000        0x0 ipp_dev.o
 .rela.text._ZNSt12out_of_rangeD0Ev
                0x00000000        0x0 ipp_dev.o
 .rela.text._ZNSt12out_of_rangeD1Ev
                0x00000000        0x0 ipp_dev.o
 .rela.text._ZNSt12length_errorD0Ev
                0x00000000        0x0 ipp_dev.o
 .rela.text._ZNSt12length_errorD1Ev
                0x00000000        0x0 ipp_dev.o
 .rela.text._ZNSt16invalid_argumentD0Ev
                0x00000000        0x0 ipp_dev.o
 .rela.text._ZNSt16invalid_argumentD1Ev
                0x00000000        0x0 ipp_dev.o
 .rela.text._ZNSt12domain_errorD0Ev
                0x00000000        0x0 ipp_dev.o
 .rela.text._ZNSt12domain_errorD1Ev
                0x00000000        0x0 ipp_dev.o
 .rela.text._ZSt19__throw_ios_failurePKc
                0x00000000        0x0 ipp_dev.o
 .rela.text._ZSt19__throw_logic_errorPKc
                0x00000000        0x0 ipp_dev.o
 .rela.text._ZSt23__throw_underflow_errorPKc
                0x00000000        0x0 ipp_dev.o
 .rela.text._ZSt22__throw_overflow_errorPKc
                0x00000000        0x0 ipp_dev.o
 .rela.text._ZSt24__throw_invalid_argumentPKc
                0x00000000        0x0 ipp_dev.o
 .rela.text._ZSt20__throw_domain_errorPKc
                0x00000000        0x0 ipp_dev.o
 .rela.text._ZSt19__throw_range_errorPKc
                0x00000000        0x0 ipp_dev.o
 .rela.text._ZSt21__throw_runtime_errorPKc
                0x00000000        0x0 ipp_dev.o
 .rela.text._ZSt20__throw_out_of_rangePKc
                0x00000000        0x0 ipp_dev.o
 .rela.text._ZSt20__throw_length_errorPKc
                0x00000000        0x0 ipp_dev.o
 .rela.text._ZNSt8ios_base7failureD1Ev
                0x00000000        0x0 ipp_dev.o
 .rela.text._ZNSt8ios_base7failureC1ERKSs
                0x00000000        0x0 ipp_dev.o
 .rela.text._ZNSt8ios_base7failureC2ERKSs
                0x00000000        0x0 ipp_dev.o
 .rela.text._ZNSt8ios_base7failureD2Ev
                0x00000000        0x0 ipp_dev.o
 .rela.text._ZNSt8ios_base7failureD0Ev
                0x00000000        0x0 ipp_dev.o
 .rela.text._ZNSt11logic_errorD1Ev
                0x00000000        0x0 ipp_dev.o
 .rela.text._ZNSt13runtime_errorC2ERKSs
                0x00000000        0x0 ipp_dev.o
 .rela.text._ZNSt15underflow_errorC1ERKSs
                0x00000000        0x0 ipp_dev.o
 .rela.text._ZNSt15underflow_errorC2ERKSs
                0x00000000        0x0 ipp_dev.o
 .rela.text._ZNSt14overflow_errorC1ERKSs
                0x00000000        0x0 ipp_dev.o
 .rela.text._ZNSt14overflow_errorC2ERKSs
                0x00000000        0x0 ipp_dev.o
 .rela.text._ZNSt11range_errorC1ERKSs
                0x00000000        0x0 ipp_dev.o
 .rela.text._ZNSt11range_errorC2ERKSs
                0x00000000        0x0 ipp_dev.o
 .rela.text._ZNSt11logic_errorC1ERKSs
                0x00000000        0x0 ipp_dev.o
 .rela.text._ZNSt11logic_errorC2ERKSs
                0x00000000        0x0 ipp_dev.o
 .rela.text._ZNSt12out_of_rangeC1ERKSs
                0x00000000        0x0 ipp_dev.o
 .rela.text._ZNSt12out_of_rangeC2ERKSs
                0x00000000        0x0 ipp_dev.o
 .rela.text._ZNSt12length_errorC1ERKSs
                0x00000000        0x0 ipp_dev.o
 .rela.text._ZNSt12length_errorC2ERKSs
                0x00000000        0x0 ipp_dev.o
 .rela.text._ZNSt16invalid_argumentC1ERKSs
                0x00000000        0x0 ipp_dev.o
 .rela.text._ZNSt16invalid_argumentC2ERKSs
                0x00000000        0x0 ipp_dev.o
 .rela.text._ZNSt12domain_errorC1ERKSs
                0x00000000        0x0 ipp_dev.o
 .rela.text._ZNSt12domain_errorC2ERKSs
                0x00000000        0x0 ipp_dev.o
 .rela.text._ZNSt13runtime_errorC1ERKSs
                0x00000000        0x0 ipp_dev.o
 .rela.text._ZNSt13runtime_errorD1Ev
                0x00000000        0x0 ipp_dev.o
 .rela.text._ZNSt13runtime_errorD2Ev
                0x00000000        0x0 ipp_dev.o
 .rela.text._ZNSt13runtime_errorD0Ev
                0x00000000        0x0 ipp_dev.o
 .rela.text._ZNSt11logic_errorD2Ev
                0x00000000        0x0 ipp_dev.o
 .rela.text._ZNSt11logic_errorD0Ev
                0x00000000        0x0 ipp_dev.o
 .rela.text._ZNSs12_S_empty_repEv
                0x00000000        0x0 ipp_dev.o
 .rela.text._ZNSsC1Ev
                0x00000000        0x0 ipp_dev.o
 .rela.text._ZNSs4_Rep12_S_empty_repEv
                0x00000000        0x0 ipp_dev.o
 .rela.text._ZNSs4_Rep10_M_refcopyEv
                0x00000000        0x0 ipp_dev.o
 .rela.text._ZNSs9_M_assignEPcjc
                0x00000000        0x0 ipp_dev.o
 .rela.text._ZNSs7_M_moveEPcPKcj
                0x00000000        0x0 ipp_dev.o
 .rela.text._ZNSs7_M_copyEPcPKcj
                0x00000000        0x0 ipp_dev.o
 .rela.text._ZNKSs4findEcj
                0x00000000        0x0 ipp_dev.o
 .rela.text._ZNKSs13find_first_ofEcj
                0x00000000        0x0 ipp_dev.o
 .rela.text._ZNSsC2Ev
                0x00000000        0x0 ipp_dev.o
 .rela.text._ZNKSs12find_last_ofEcj
                0x00000000        0x0 ipp_dev.o
 .rela.text._ZNSs4_Rep9_S_createEjjRKSaIcE
                0x00000000        0x0 ipp_dev.o
 .rela.text._ZNSs4_Rep10_M_destroyERKSaIcE
                0x00000000        0x0 ipp_dev.o
 .rela.text._ZNSs4_Rep10_M_disposeERKSaIcE
                0x00000000        0x0 ipp_dev.o
 .rela.text._ZNKSs16find_last_not_ofEPKcjj
                0x00000000        0x0 ipp_dev.o
 .rela.text._ZNKSs16find_last_not_ofERKSsj
                0x00000000        0x0 ipp_dev.o
 .rela.text._ZNKSs17find_first_not_ofEPKcjj
                0x00000000        0x0 ipp_dev.o
 .rela.text._ZNKSs17find_first_not_ofERKSsj
                0x00000000        0x0 ipp_dev.o
 .rela.text._ZNKSs12find_last_ofEPKcjj
                0x00000000        0x0 ipp_dev.o
 .rela.text._ZNKSs12find_last_ofERKSsj
                0x00000000        0x0 ipp_dev.o
 .rela.text._ZNKSs13find_first_ofEPKcjj
                0x00000000        0x0 ipp_dev.o
 .rela.text._ZNKSs13find_first_ofERKSsj
                0x00000000        0x0 ipp_dev.o
 .rela.text._ZNKSs7compareERKSs
                0x00000000        0x0 ipp_dev.o
 .rela.text._ZNKSs5rfindEPKcjj
                0x00000000        0x0 ipp_dev.o
 .rela.text._ZNKSs5rfindERKSsj
                0x00000000        0x0 ipp_dev.o
 .rela.text._ZNKSs4findEPKcjj
                0x00000000        0x0 ipp_dev.o
 .rela.text._ZNKSs4findERKSsj
                0x00000000        0x0 ipp_dev.o
 .rela.text._ZNKSs7compareEPKc
                0x00000000        0x0 ipp_dev.o
 .rela.text._ZNKSs16find_last_not_ofEPKcj
                0x00000000        0x0 ipp_dev.o
 .rela.text._ZNKSs17find_first_not_ofEPKcj
                0x00000000        0x0 ipp_dev.o
 .rela.text._ZNKSs12find_last_ofEPKcj
                0x00000000        0x0 ipp_dev.o
 .rela.text._ZNKSs13find_first_ofEPKcj
                0x00000000        0x0 ipp_dev.o
 .rela.text._ZNKSs5rfindEPKcj
                0x00000000        0x0 ipp_dev.o
 .rela.text._ZNKSs4findEPKcj
                0x00000000        0x0 ipp_dev.o
 .rela.text._ZNSs12_S_constructEjcRKSaIcE
                0x00000000        0x0 ipp_dev.o
 .rela.text._ZNSsC1EjcRKSaIcE
                0x00000000        0x0 ipp_dev.o
 .rela.text._ZNSsC2EjcRKSaIcE
                0x00000000        0x0 ipp_dev.o
 .rela.text._ZNSsC1ERKSaIcE
                0x00000000        0x0 ipp_dev.o
 .rela.text._ZNSsC2ERKSaIcE
                0x00000000        0x0 ipp_dev.o
 .rela.text._ZNKSs7compareEjjPKcj
                0x00000000        0x0 ipp_dev.o
 .rela.text._ZNKSs7compareEjjPKc
                0x00000000        0x0 ipp_dev.o
 .rela.text._ZNKSs7compareEjjRKSsjj
                0x00000000        0x0 ipp_dev.o
 .rela.text._ZNKSs7compareEjjRKSs
                0x00000000        0x0 ipp_dev.o
 .rela.text._ZNSsD1Ev
                0x00000000        0x0 ipp_dev.o
 .rela.text._ZNSsD2Ev
                0x00000000        0x0 ipp_dev.o
 .rela.text._ZNSs13_S_copy_charsEPcS_S_
                0x00000000        0x0 ipp_dev.o
 .rela.text._ZNSs4_Rep8_M_cloneERKSaIcEj
                0x00000000        0x0 ipp_dev.o
 .rela.text._ZNSs4_Rep7_M_grabERKSaIcES2_
                0x00000000        0x0 ipp_dev.o
 .rela.text._ZNSs7reserveEj
                0x00000000        0x0 ipp_dev.o
 .rela.text._ZNSs9push_backEc
                0x00000000        0x0 ipp_dev.o
 .rela.text._ZNSs6appendEjc
                0x00000000        0x0 ipp_dev.o
 .rela.text._ZNSspLEc
                0x00000000        0x0 ipp_dev.o
 .rela.text._ZNKSs4copyEPcjj
                0x00000000        0x0 ipp_dev.o
 .rela.text._ZNSs6appendEPKcj
                0x00000000        0x0 ipp_dev.o
 .rela.text._ZNSs6appendEPKc
                0x00000000        0x0 ipp_dev.o
 .rela.text._ZNSspLEPKc
                0x00000000        0x0 ipp_dev.o
 .rela.text._ZNSs6appendERKSsjj
                0x00000000        0x0 ipp_dev.o
 .rela.text._ZNSs6appendERKSs
                0x00000000        0x0 ipp_dev.o
 .rela.text._ZNSspLERKSs
                0x00000000        0x0 ipp_dev.o
 .rela.text._ZNSs9_M_mutateEjjj
                0x00000000        0x0 ipp_dev.o
 .rela.text._ZNSs15_M_replace_safeEjjPKcj
                0x00000000        0x0 ipp_dev.o
 .rela.text._ZNSs6assignEPKcj
                0x00000000        0x0 ipp_dev.o
 .rela.text._ZNSs6assignEPKc
                0x00000000        0x0 ipp_dev.o
 .rela.text._ZNSs6assignERKSsjj
                0x00000000        0x0 ipp_dev.o
 .rela.text._ZNSsaSEPKc
                0x00000000        0x0 ipp_dev.o
 .rela.text._ZNSs14_M_replace_auxEjjjc
                0x00000000        0x0 ipp_dev.o
 .rela.text._ZNSs7replaceEN9__gnu_cxx17__normal_iteratorIPcSsEES2_jc
                0x00000000        0x0 ipp_dev.o
 .rela.text._ZNSs7replaceEjjjc
                0x00000000        0x0 ipp_dev.o
 .rela.text._ZNSs6insertEN9__gnu_cxx17__normal_iteratorIPcSsEEc
                0x00000000        0x0 ipp_dev.o
 .rela.text._ZNSs6insertEjjc
                0x00000000        0x0 ipp_dev.o
 .rela.text._ZNSs6assignEjc
                0x00000000        0x0 ipp_dev.o
 .rela.text._ZNSsaSEc
                0x00000000        0x0 ipp_dev.o
 .rela.text._ZNSs6insertEN9__gnu_cxx17__normal_iteratorIPcSsEEjc
                0x00000000        0x0 ipp_dev.o
 .rela.text._ZNSs5eraseEN9__gnu_cxx17__normal_iteratorIPcSsEES2_
                0x00000000        0x0 ipp_dev.o
 .rela.text._ZNSs5eraseEN9__gnu_cxx17__normal_iteratorIPcSsEE
                0x00000000        0x0 ipp_dev.o
 .rela.text._ZNSs5eraseEjj
                0x00000000        0x0 ipp_dev.o
 .rela.text._ZNSs6insertEjPKcj
                0x00000000        0x0 ipp_dev.o
 .rela.text._ZNSs6insertEjPKc
                0x00000000        0x0 ipp_dev.o
 .rela.text._ZNSs6insertEjRKSsjj
                0x00000000        0x0 ipp_dev.o
 .rela.text._ZNSs6insertEjRKSs
                0x00000000        0x0 ipp_dev.o
 .rela.text._ZNSs5clearEv
                0x00000000        0x0 ipp_dev.o
 .rela.text._ZNSs12_M_leak_hardEv
                0x00000000        0x0 ipp_dev.o
 .rela.text._ZNSs7_M_leakEv
                0x00000000        0x0 ipp_dev.o
 .rela.text._ZNSs2atEj
                0x00000000        0x0 ipp_dev.o
 .rela.text._ZNSsixEj
                0x00000000        0x0 ipp_dev.o
 .rela.text._ZNSs3endEv
                0x00000000        0x0 ipp_dev.o
 .rela.text._ZNSs5beginEv
                0x00000000        0x0 ipp_dev.o
 .rela.text._ZNSs4rendEv
                0x00000000        0x0 ipp_dev.o
 .rela.text._ZNSs6rbeginEv
                0x00000000        0x0 ipp_dev.o
 .rela.text._ZNSs6resizeEjc
                0x00000000        0x0 ipp_dev.o
 .rela.text._ZNSs6resizeEj
                0x00000000        0x0 ipp_dev.o
 .rela.text._ZNSs13_S_copy_charsEPcPKcS1_
                0x00000000        0x0 ipp_dev.o
 .rela.text._ZNSs13_S_copy_charsEPcN9__gnu_cxx17__normal_iteratorIPKcSsEES4_
                0x00000000        0x0 ipp_dev.o
 .rela.text._ZNSs13_S_copy_charsEPcN9__gnu_cxx17__normal_iteratorIS_SsEES2_
                0x00000000        0x0 ipp_dev.o
 .rela.text._ZNSs12_S_constructIPKcEEPcT_S3_RKSaIcESt20forward_iterator_tag
                0x00000000        0x0 ipp_dev.o
 .rela.text._ZNSsC2EPKcRKSaIcE
                0x00000000        0x0 ipp_dev.o
 .rela.text._ZNSsC1IPKcEET_S2_RKSaIcE
                0x00000000        0x0 ipp_dev.o
 .rela.text._ZNSsC2IPKcEET_S2_RKSaIcE
                0x00000000        0x0 ipp_dev.o
 .rela.text._ZNSsC1EPKcRKSaIcE
                0x00000000        0x0 ipp_dev.o
 .rela.text._ZNSsC1EPKcjRKSaIcE
                0x00000000        0x0 ipp_dev.o
 .rela.text._ZNSsC2EPKcjRKSaIcE
                0x00000000        0x0 ipp_dev.o
 .rela.text._ZNSs12_S_constructIPcEES0_T_S1_RKSaIcESt20forward_iterator_tag
                0x00000000        0x0 ipp_dev.o
 .rela.text._ZNSsC2ERKSsjj
                0x00000000        0x0 ipp_dev.o
 .rela.text._ZNSsC1IPcEET_S1_RKSaIcE
                0x00000000        0x0 ipp_dev.o
 .rela.text._ZNSsC1ERKSsjj
                0x00000000        0x0 ipp_dev.o
 .rela.text._ZNKSs6substrEjj
                0x00000000        0x0 ipp_dev.o
 .rela.text._ZNSsC1ERKSsjjRKSaIcE
                0x00000000        0x0 ipp_dev.o
 .rela.text._ZNSsC2ERKSsjjRKSaIcE
                0x00000000        0x0 ipp_dev.o
 .rela.text._ZNSsC2IPcEET_S1_RKSaIcE
                0x00000000        0x0 ipp_dev.o
 .rela.text._ZNSs12_S_constructIN9__gnu_cxx17__normal_iteratorIPcSsEEEES2_T_S4_RKSaIcESt20forward_iterator_tag
                0x00000000        0x0 ipp_dev.o
 .rela.text._ZNSsC1IN9__gnu_cxx17__normal_iteratorIPcSsEEEET_S4_RKSaIcE
                0x00000000        0x0 ipp_dev.o
 .rela.text._ZNSsC2IN9__gnu_cxx17__normal_iteratorIPcSsEEEET_S4_RKSaIcE
                0x00000000        0x0 ipp_dev.o
 .rela.text._ZNSs6assignERKSs
                0x00000000        0x0 ipp_dev.o
 .rela.text._ZNSsaSERKSs
                0x00000000        0x0 ipp_dev.o
 .rela.text._ZNSsC1ERKSs
                0x00000000        0x0 ipp_dev.o
 .rela.text._ZNSsC2ERKSs
                0x00000000        0x0 ipp_dev.o
 .rela.text._ZStplIcSt11char_traitsIcESaIcEESbIT_T0_T1_ERKS6_S8_
                0x00000000        0x0 ipp_dev.o
 .rela.text._ZNSs7replaceEjjPKcj
                0x00000000        0x0 ipp_dev.o
 .rela.text._ZNSs7replaceEN9__gnu_cxx17__normal_iteratorIPcSsEES2_NS0_IPKcSsEES5_
                0x00000000        0x0 ipp_dev.o
 .rela.text._ZNSs7replaceEN9__gnu_cxx17__normal_iteratorIPcSsEES2_S2_S2_
                0x00000000        0x0 ipp_dev.o
 .rela.text._ZNSs7replaceEN9__gnu_cxx17__normal_iteratorIPcSsEES2_PKcS4_
                0x00000000        0x0 ipp_dev.o
 .rela.text._ZNSs7replaceEN9__gnu_cxx17__normal_iteratorIPcSsEES2_S1_S1_
                0x00000000        0x0 ipp_dev.o
 .rela.text._ZNSs7replaceEN9__gnu_cxx17__normal_iteratorIPcSsEES2_PKcj
                0x00000000        0x0 ipp_dev.o
 .rela.text._ZNSs7replaceEjjPKc
                0x00000000        0x0 ipp_dev.o
 .rela.text._ZNSs7replaceEjjRKSsjj
                0x00000000        0x0 ipp_dev.o
 .rela.text._ZNSs7replaceEjjRKSs
                0x00000000        0x0 ipp_dev.o
 .rela.text._ZNSs7replaceEN9__gnu_cxx17__normal_iteratorIPcSsEES2_PKc
                0x00000000        0x0 ipp_dev.o
 .rela.text._ZNSs7replaceEN9__gnu_cxx17__normal_iteratorIPcSsEES2_RKSs
                0x00000000        0x0 ipp_dev.o
 .rela.text._ZStplIcSt11char_traitsIcESaIcEESbIT_T0_T1_ES3_RKS6_
                0x00000000        0x0 ipp_dev.o
 .rela.text._ZStplIcSt11char_traitsIcESaIcEESbIT_T0_T1_EPKS3_RKS6_
                0x00000000        0x0 ipp_dev.o

.rel.fini
 *(.rel.fini)

.rela.fini
 *(.rela.fini)

.rel.rodata
 *(.rel.rodata .rel.rodata.* .rel.gnu.linkonce.r.*)

.rela.rodata    0x01000054        0x0
 *(.rela.rodata .rela.rodata.* .rela.gnu.linkonce.r.*)
 .rela.rodata   0x00000000        0x0 ipp_dev.o
 .rela.rodata._ZTISt15underflow_error
                0x00000000        0x0 ipp_dev.o
 .rela.rodata._ZTVSt15underflow_error
                0x00000000        0x0 ipp_dev.o
 .rela.rodata._ZTISt14overflow_error
                0x00000000        0x0 ipp_dev.o
 .rela.rodata._ZTVSt14overflow_error
                0x00000000        0x0 ipp_dev.o
 .rela.rodata._ZTISt11range_error
                0x00000000        0x0 ipp_dev.o
 .rela.rodata._ZTVSt11range_error
                0x00000000        0x0 ipp_dev.o
 .rela.rodata._ZTISt12out_of_range
                0x00000000        0x0 ipp_dev.o
 .rela.rodata._ZTVSt12out_of_range
                0x00000000        0x0 ipp_dev.o
 .rela.rodata._ZTISt12length_error
                0x00000000        0x0 ipp_dev.o
 .rela.rodata._ZTVSt12length_error
                0x00000000        0x0 ipp_dev.o
 .rela.rodata._ZTISt16invalid_argument
                0x00000000        0x0 ipp_dev.o
 .rela.rodata._ZTVSt16invalid_argument
                0x00000000        0x0 ipp_dev.o
 .rela.rodata._ZTISt12domain_error
                0x00000000        0x0 ipp_dev.o
 .rela.rodata._ZTVSt12domain_error
                0x00000000        0x0 ipp_dev.o
 .rela.rodata._ZTVNSt8ios_base7failureE
                0x00000000        0x0 ipp_dev.o
 .rela.rodata._ZTINSt8ios_base7failureE
                0x00000000        0x0 ipp_dev.o
 .rela.rodata._ZTVSt13runtime_error
                0x00000000        0x0 ipp_dev.o
 .rela.rodata._ZTVSt11logic_error
                0x00000000        0x0 ipp_dev.o
 .rela.rodata._ZTISt13runtime_error
                0x00000000        0x0 ipp_dev.o
 .rela.rodata._ZTISt11logic_error
                0x00000000        0x0 ipp_dev.o

.rel.data.rel.ro
 *(.rel.data.rel.ro* .rel.gnu.linkonce.d.rel.ro.*)

.rela.data.rel.ro
                0x01000054        0x0
 *(.rela.data.rel.ro* .rela.gnu.linkonce.d.rel.ro.*)
 .rela.data.rel.ro._ZTV10AttrGroups
                0x00000000        0x0 ipp_dev.o
 .rela.data.rel.ro._ZTVSt13bad_exception
                0x00000000        0x0 ipp_dev.o
 .rela.data.rel.ro._ZTVSt9exception
                0x00000000        0x0 ipp_dev.o
 .rela.data.rel.ro._ZTISt13bad_exception
                0x00000000        0x0 ipp_dev.o
 .rela.data.rel.ro._ZTVSt9bad_alloc
                0x00000000        0x0 ipp_dev.o
 .rela.data.rel.ro._ZTISt9bad_alloc
                0x00000000        0x0 ipp_dev.o
 .rela.data.rel.ro._ZTVN10__cxxabiv121__vmi_class_type_infoE
                0x00000000        0x0 ipp_dev.o
 .rela.data.rel.ro._ZTVN10__cxxabiv120__si_class_type_infoE
                0x00000000        0x0 ipp_dev.o
 .rela.data.rel.ro._ZTVN10__cxxabiv117__class_type_infoE
                0x00000000        0x0 ipp_dev.o
 .rela.data.rel.ro._ZTVSt10bad_typeid
                0x00000000        0x0 ipp_dev.o
 .rela.data.rel.ro._ZTVSt8bad_cast
                0x00000000        0x0 ipp_dev.o
 .rela.data.rel.ro._ZTVSt9type_info
                0x00000000        0x0 ipp_dev.o
 .rela.data.rel.ro._ZTIN10__cxxabiv121__vmi_class_type_infoE
                0x00000000        0x0 ipp_dev.o
 .rela.data.rel.ro._ZTIN10__cxxabiv120__si_class_type_infoE
                0x00000000        0x0 ipp_dev.o
 .rela.data.rel.ro._ZTIN10__cxxabiv117__class_type_infoE
                0x00000000        0x0 ipp_dev.o
 .rela.data.rel.ro._ZTISt10bad_typeid
                0x00000000        0x0 ipp_dev.o
 .rela.data.rel.ro._ZTISt8bad_cast
                0x00000000        0x0 ipp_dev.o

.rel.data
 *(.rel.data .rel.data.* .rel.gnu.linkonce.d.*)

.rela.data
 *(.rela.data .rela.data.* .rela.gnu.linkonce.d.*)

.rel.tdata
 *(.rel.tdata .rel.tdata.* .rel.gnu.linkonce.td.*)

.rela.tdata
 *(.rela.tdata .rela.tdata.* .rela.gnu.linkonce.td.*)

.rel.tbss
 *(.rel.tbss .rel.tbss.* .rel.gnu.linkonce.tb.*)

.rela.tbss
 *(.rela.tbss .rela.tbss.* .rela.gnu.linkonce.tb.*)

.rel.ctors
 *(.rel.ctors)

.rela.ctors
 *(.rela.ctors)

.rel.dtors
 *(.rel.dtors)

.rela.dtors
 *(.rela.dtors)

.rel.got
 *(.rel.got)

.rela.got
 *(.rela.got)

.rel.sdata
 *(.rel.sdata .rel.sdata.* .rel.gnu.linkonce.s.*)

.rela.sdata     0x01000054        0x0
 *(.rela.sdata .rela.sdata.* .rela.gnu.linkonce.s.*)
 .rela.sdata._ZTI10AttrGroups
                0x00000000        0x0 ipp_dev.o
 .rela.sdata._ZTISt9exception
                0x00000000        0x0 ipp_dev.o
 .rela.sdata._ZN10__cxxabiv119__terminate_handlerE
                0x00000000        0x0 ipp_dev.o
 .rela.sdata.DW.ref._ZTISt9bad_alloc
                0x00000000        0x0 ipp_dev.o
 .rela.sdata._ZTISt9type_info
                0x00000000        0x0 ipp_dev.o
 .rela.sdata.DW.ref._ZTISt9exception
                0x00000000        0x0 ipp_dev.o

.rel.sbss
 *(.rel.sbss .rel.sbss.* .rel.gnu.linkonce.sb.*)

.rela.sbss
 *(.rela.sbss .rela.sbss.* .rela.gnu.linkonce.sb.*)

.rel.sdata2
 *(.rel.sdata2 .rel.sdata2.* .rel.gnu.linkonce.s2.*)

.rela.sdata2
 *(.rela.sdata2 .rela.sdata2.* .rela.gnu.linkonce.s2.*)

.rel.sbss2
 *(.rel.sbss2 .rel.sbss2.* .rel.gnu.linkonce.sb2.*)

.rela.sbss2
 *(.rela.sbss2 .rela.sbss2.* .rela.gnu.linkonce.sb2.*)

.rel.bss
 *(.rel.bss .rel.bss.* .rel.gnu.linkonce.b.*)

.rela.bss
 *(.rela.bss .rela.bss.* .rela.gnu.linkonce.b.*)

.rel.plt
 *(.rel.plt)

.rela.plt
 *(.rela.plt)

.init
 *(.init)

.text           0x01000054    0x4607c
 *(.text .stub .text.* .gnu.linkonce.t.*)
 .text          0x01000054     0x12a8 ipp_dev.o
                0x01000424                _start
                0x01000ce8                SPrintf
                0x01000054                ReturnError
 .text          0x010012fc      0x12c dev_68k.o
 .text          0x01001428     0x19d4 ../ipr/ipr.o
                0x01001b48                dumpMessage(_ipp_s*)
                0x01001948                displayOptions()
                0x0100142c                write_cb(void*, unsigned char*, unsigned int)
                0x010019fc                hex_dump(unsigned char*, int)
                0x01001c7c                main
                0x01001c08                pathnameToFilename(char const*)
                0x01001544                ipp_print_file
 .text          0x01002dfc      0xdac ../ipr/iprutil.o
                0x01003074                ippMessageSetAttr
                0x010031ac                defineAdd
                0x01003150                ippCreateWithHeader
                0x0100356c                loadOptionsBuffer
                0x01002e2c                IPROptions::IPROptions()
                0x010034a0                bufferToFile
                0x01002ee0                defineClean
                0x01002f64                ippIsAttributeString
                0x01002dfc                IPROptions::IPROptions()
                0x01003a44                stdinToBuffer
                0x01002f2c                defineGet
                0x010039b4                loadOptions
                0x01002e60                errCodeToString
                0x0100331c                fileToBuffer
                0x01002fa8                ippNameToType
 .text          0x01003ba8     0x2e9c ../ipr/AttrGroups.o
                0x01005440                AttrGroups::AttrGroups(_ipp_s*, ipp_tag_e)
                0x010062e4                AttrGroups::AttrGroups(_ipp_s*, ipp_tag_e)
                0x010049a8                AttrGroups::populateValues(_ipp_s*, ipp_tag_e)
                0x010058e0                AttrGroups::~AttrGroups()
                0x01005184                AttrGroups::~AttrGroups()
                0x010043a8                AttrGroups::ippCountAttributesInGroup(_ipp_s*, ipp_tag_e, std::map<std::string, int, std::less<std::string>, std::allocator<std::pair<std::string const, int> > >&, unsigned int*, unsigned int*)
                0x01006784                AttrGroups::~AttrGroups()
                0x01003ba8                AttrGroups::ippResetIterator(_ipp_s*)
                0x010040bc                AttrGroups::nameForIndex(int)
                0x01003bbc                AttrGroups::ippFindNextAttributeInGroup(_ipp_s*, ipp_tag_e)
                0x01004150                AttrGroups::indexOfName(char const*)
                0x01003da0                AttrGroups::ippValueToString(_ipp_attribute_s*, std::string&)
                0x01003c60                AttrGroups::GetDateTime(long)
                0x01005b9c                AttrGroups::print(char*, char*, AttrGroups::EOutputStyle)
 .text._ZNSt8_Rb_treeISsSt4pairIKSsiESt10_Select1stIS2_ESt4lessISsESaIS2_EE4findERS1_
                0x01006a44      0x17c ../ipr/AttrGroups.o
                0x01006a44                std::_Rb_tree<std::string, std::pair<std::string const, int>, std::_Select1st<std::pair<std::string const, int> >, std::less<std::string>, std::allocator<std::pair<std::string const, int> > >::find(std::string const&)
 .text._ZNSt8_Rb_treeISsSt4pairIKSsiESt10_Select1stIS2_ESt4lessISsESaIS2_EE9_M_insertEPSt18_Rb_tree_node_baseSA_RKS2_
                0x01006bc0      0x304 ../ipr/AttrGroups.o
                0x01006bc4                std::_Rb_tree<std::string, std::pair<std::string const, int>, std::_Select1st<std::pair<std::string const, int> >, std::less<std::string>, std::allocator<std::pair<std::string const, int> > >::_M_insert(std::_Rb_tree_node_base*, std::_Rb_tree_node_base*, std::pair<std::string const, int> const&)
 .text._ZNSt8_Rb_treeISsSt4pairIKSsiESt10_Select1stIS2_ESt4lessISsESaIS2_EE16_M_insert_uniqueERKS2_
                0x01006ec4      0x1a4 ../ipr/AttrGroups.o
                0x01006ec4                std::_Rb_tree<std::string, std::pair<std::string const, int>, std::_Select1st<std::pair<std::string const, int> >, std::less<std::string>, std::allocator<std::pair<std::string const, int> > >::_M_insert_unique(std::pair<std::string const, int> const&)
 .text._ZNSt8_Rb_treeISsSt4pairIKSsiESt10_Select1stIS2_ESt4lessISsESaIS2_EE8_M_eraseEPSt13_Rb_tree_nodeIS2_E
                0x01007068       0xc8 ../ipr/AttrGroups.o
                0x0100706c                std::_Rb_tree<std::string, std::pair<std::string const, int>, std::_Select1st<std::pair<std::string const, int> >, std::less<std::string>, std::allocator<std::pair<std::string const, int> > >::_M_erase(std::_Rb_tree_node<std::pair<std::string const, int> >*)
 .text._ZNSt6vectorISsSaISsEE13_M_insert_auxEN9__gnu_cxx17__normal_iteratorIPSsS1_EERKSs
                0x01007130      0x77c ../ipr/AttrGroups.o
                0x01007134                std::vector<std::string, std::allocator<std::string> >::_M_insert_aux(__gnu_cxx::__normal_iterator<std::string*, std::vector<std::string, std::allocator<std::string> > >, std::string const&)
 .text          0x010078ac     0x4bfc ../cups/libcups.a(http.o)
                0x0100ae44                httpGet
                0x01009eb0                httpReadRequest
                0x01007ac0                httpGetRemaining
                0x01008dcc                httpSetAuthString
                0x0100a92c                httpPrintf
                0x01008d1c                httpSetLength
                0x010078c8                httpError
                0x0100c484                httpGetSubField
                0x0100ba14                httpAddCredential
                0x01008a9c                httpWait
                0x0100b278                httpInitialize
                0x01009674                httpGetLength2
                0x01007bac                httpSetKeepAlive
                0x01008a7c                httpWrite
                0x01009080                httpSetField
                0x01007c90                httpFieldValue
                0x01009648                httpReconnect
                0x010094b8                _httpDisconnect
                0x010079a8                httpGetFd
                0x01007968                httpGetEncryption
                0x0100bac0                httpAcceptConnection
                0x01007a6c                httpGetPending
                0x0100b840                httpConnect2
                0x01007a4c                httpGetKeepAlive
                0x0100b934                httpCompareCredentials
                0x01007b40                httpIsChunked
                0x01008b68                httpCheck
                0x01008c88                httpSetTimeout
                0x01007b94                httpSetExpect
                0x01007b68                httpIsEncrypted
                0x010093e4                httpSetCookie
                0x01007d3c                httpClearCookie
                0x01007988                httpGetExpect
                0x0100adf4                httpPut
                0x0100bf28                httpUpdate
                0x0100ae58                httpDelete
                0x01007948                httpGetCookie
                0x01007908                httpGetAuthString
                0x010078e8                httpGetActivity
                0x01009500                httpReconnect2
                0x01009468                httpSetCredentials
                0x010079c8                httpGetField
                0x01007928                httpGetBlocking
                0x0100b7cc                httpClose
                0x01007d80                _httpWait
                0x0100c014                httpGetSubField2
                0x0100b588                httpFreeCredentials
                0x0100b8c4                httpConnectEncrypt
                0x01007b00                httpGetStatus
                0x0100ae08                httpPost
                0x01009834                httpGetLength
                0x0100bc34                _httpUpdate
                0x010092e8                httpClearFields
                0x0100b2e4                httpGetContentEncoding
                0x0100a668                httpPeek
                0x0100ae1c                httpOptions
                0x01007b20                httpGetVersion
                0x01008f58                httpSetDefaultField
                0x01007a8c                httpGetReady
                0x01007ae0                httpGetState
                0x0100829c                httpFlushWrite
                0x0100ae70                httpWriteResponse
                0x0100a570                httpFlush
                0x0100ae30                httpHead
                0x01008b8c                httpShutdown
                0x01009ad0                httpGets
                0x0100ade0                httpTrace
                0x0100a550                httpRead
                0x01007c6c                httpBlocking
                0x010087a0                httpWrite2
                0x0100a224                httpRead2
                0x010078ac                httpEncryption
                0x0100b8fc                httpConnect
 .text          0x0100c4a8      0x9c0 ../cups/libcups.a(http-addr.o)
                0x0100cd28                httpAddrListen
                0x0100c638                httpGetAddress
                0x0100c604                _httpAddrSetPort
                0x0100ccf8                httpAddrClose
                0x0100ca74                httpAddrLookup
                0x0100c53c                httpAddrLength
                0x0100c65c                httpGetHostname
                0x0100c56c                httpAddrLocalhost
                0x0100c800                httpGetHostByName
                0x0100c4e0                httpAddrEqual
                0x0100c5b0                httpAddrFamily
                0x0100c4a8                httpAddrAny
                0x0100c978                httpAddrString
                0x0100c5d0                httpAddrPort
                0x0100cbc8                httpResolveHostname
 .text          0x0100ce68      0xd90 ../cups/libcups.a(http-addrlist.o)
                0x0100d554                httpAddrConnect2
                0x0100ce68                httpAddrFreeList
                0x0100ceb4                httpAddrGetList
                0x0100dbd0                httpAddrConnect
                0x0100d458                httpAddrCopyList
 .text          0x0100dbf8     0x20e0 ../cups/libcups.a(http-support.o)
                0x0100f3c0                httpGetDateString2
                0x0100dbf8                httpDecode64_2
                0x0100ef30                _httpResolveURI
                0x0100f998                httpAssembleUUID
                0x0100ddc8                httpDecode64
                0x0100f4e8                httpAssembleURI
                0x0100e3e0                _httpDecodeURI
                0x0100f090                httpSeparate2
                0x0100e728                httpStatus
                0x0100e7ac                httpSeparateURI
                0x0100f17c                httpEncode64
                0x0100e52c                _httpStatus
                0x0100f124                httpSeparate
                0x0100e434                httpURIStatusString
                0x0100f1d8                httpGetDateTime
                0x0100f4a0                httpGetDateString
                0x0100e1b0                _httpEncodeURI
                0x0100ddfc                httpEncode64_2
                0x0100fb4c                httpAssembleURIf
                0x0100dfb8                httpStateString
 .text          0x0100fcd8     0x6d40 ../cups/libcups.a(ipp.o)
                0x01014c7c                ippAddBooleans
                0x01013aec                ippWrite
                0x01012b7c                ippSetOctetString
                0x01016914                ippCopyAttributes
                0x0100fe20                ippGetCollection
                0x01012a14                ippSetCollection
                0x0100fdd4                ippGetBoolean
                0x01010138                ippGetStatusCode
                0x0100fed0                ippGetGroupTag
                0x01016320                ippDateToTime
                0x01014b28                ippAddCollections
                0x01010368                ippSetStatusCode
                0x01012ae4                ippSetBoolean
                0x01012ca8                _cupsBufferGet
                0x01014400                ippAddStringf
                0x010116bc                ippTimeToDate
                0x010102f8                ippSetOperation
                0x0101641c                ippCopyAttribute
                0x01010158                ippGetValueTag
                0x01011df8                ippSetValueTag
                0x01011c0c                ippContainsString
                0x010128b4                ippSetInteger
                0x0100ff64                ippGetOctetString
                0x0101164c                ippValidateAttributes
                0x01012958                ippSetDate
                0x01014f58                ippNew
                0x01013c68                ippAddStrings
                0x01010824                ippValidateAttribute
                0x01014498                ippAddResolutions
                0x0100ffdc                ippGetOperation
                0x01015f64                ippFindNextAttribute
                0x01013f48                ippAddString
                0x01014a84                ippAddDate
                0x01011764                ippSetName
                0x0101038c                ippSetVersion
                0x0101031c                ippSetRequestId
                0x01010720                ippLength
                0x01011a94                ippDeleteValues
                0x0100fcec                ippContainsInteger
                0x01015ea0                ippNewRequest
                0x01010340                ippSetState
                0x0101483c                ippAddOctetString
                0x010119c4                ippDeleteAttribute
                0x01014d34                ippAddBoolean
                0x010126c4                ippSetStringf
                0x010162d0                ippFindAttribute
                0x01013a90                ippWriteFile
                0x01015c14                ippReadFile
                0x0100fef0                ippGetInteger
                0x01014160                ippAddStringfv
                0x0100fe68                ippGetCount
                0x01011b48                ippDelete
                0x01010118                ippGetState
                0x0101273c                ippSetResolution
                0x010122e8                ippSetString
                0x01014654                ippAddRanges
                0x010149e0                ippAddInteger
                0x0101446c                ippAddSeparator
                0x01010270                ippNextAttribute
                0x0101500c                ippReadIO
                0x01010068                ippGetRequestId
                0x0101472c                ippAddRange
                0x01014bec                ippAddCollection
                0x0100fffc                ippGetRange
                0x0101492c                ippAddIntegers
                0x01012d50                ippWriteIO
                0x0100ff44                ippGetName
                0x0100fdb4                ippFirstAttribute
                0x0100fcd8                _cupsBufferRelease
                0x01015cc8                ippNewResponse
                0x01010228                ippGetVersion
                0x01014590                ippAddResolution
                0x01010088                ippGetResolution
                0x0101280c                ippSetRange
                0x0100fe88                ippGetDate
                0x01012424                ippSetStringfv
                0x010102a4                ippSetGroupTag
                0x01015c68                ippRead
                0x0101017c                ippGetString
                0x010147c0                ippAddOutOfBand
 .text          0x01016a18      0x6f4 ../cups/libcups.a(langprintf.o)
                0x01016a1c                _cupsSetLocale
                0x01016bc4                _cupsLangPuts
                0x01016cb8                _cupsLangPrintf
                0x01016f88                _cupsLangPrintError
                0x01016e14                _cupsLangPrintFilter
 .text          0x0101710c      0xfb0 ../cups/libcups.a(language.o)
                0x010171dc                _cupsMessageNew
                0x01017110                _cupsEncodingName
                0x01018098                cupsLangDefault
                0x010177f0                cupsLangFlush
                0x01017880                _cupsLangString
                0x01017750                _cupsMessageFree
                0x010172f8                _cupsMessageLoad
                0x010172a4                _cupsMessageLookup
                0x01017a24                cupsLangGet
                0x01017174                cupsLangEncoding
                0x01017774                cupsLangFree
 .text          0x010180bc      0xca4 ../cups/libcups.a(md5.o)
                0x01018b0c                _cupsMD5Append
                0x01018c78                _cupsMD5Finish
                0x01018ac4                _cupsMD5Init
 .text          0x01018d60     0x11d4 ../cups/libcups.a(request.o)
                0x010193f0                cupsSendRequest
                0x010197b8                cupsReadResponseData
                0x01019e24                cupsDoFileRequest
                0x01019a8c                cupsDoIORequest
                0x01018df0                cupsLastError
                0x01019844                cupsGetResponse
                0x01018e14                _cupsSetError
                0x010190e8                _cupsConnect
                0x01018d60                _cupsNextDelay
                0x01019280                cupsWriteRequestData
                0x01018f38                _cupsSetHTTPError
                0x01019dfc                cupsDoRequest
                0x01018dcc                cupsLastErrorString
 .text          0x01019f34      0xe3c ../cups/libcups.a(string.o)
                0x0101a634                _cupsStrFormatd
                0x0101a568                _cupsStrFree
                0x0101ab84                _cups_strncasecmp
                0x0101a86c                _cupsStrFlush
                0x0101a1d4                _cupsStrRetain
                0x01019ffc                _cups_strlcat
                0x01019f34                _cups_strcpy
                0x0101aca0                _cups_strcasecmp
                0x0101a248                _cupsStrScand
                0x0101a0c0                _cupsStrStatistics
                0x0101a8f4                _cupsStrDate
                0x0101aa00                _cupsStrAlloc
                0x01019f80                _cups_strlcpy
 .text          0x0101ad70       0xe8 ../cups/libcups.a(thread.o)
                0x0101add0                _cupsRWLockWrite
                0x0101ade8                _cupsThreadCancel
                0x0101adb8                _cupsRWInit
                0x0101addc                _cupsRWUnlock
                0x0101adac                _cupsMutexUnlock
                0x0101ad70                _cupsCondBroadcast
                0x0101ae08                _cupsThreadCreate
                0x0101adc4                _cupsRWLockRead
                0x0101ada0                _cupsMutexLock
                0x0101ad7c                _cupsCondInit
                0x0101ad88                _cupsCondWait
                0x0101ad94                _cupsMutexInit
                0x0101adf4                _cupsThreadWait
 .text          0x0101ae58      0x688 ../cups/libcups.a(transcode.o)
                0x0101b228                cupsUTF8ToCharset
                0x0101b394                cupsCharsetToUTF8
                0x0101ae58                _cupsCharmapFlush
                0x0101ae64                cupsUTF8ToUTF32
                0x0101b048                cupsUTF32ToUTF8
 .text          0x0101b4e0     0x102c ../cups/libcups.a(usersys.o)
                0x0101b690                cupsGetPassword
                0x0101b738                cupsSetUser
                0x0101c3cc                cupsSetEncryption
                0x0101b648                cupsSetClientCertCB
                0x0101bca8                cupsSetServer
                0x0101c2f8                cupsUser
                0x0101c338                cupsServer
                0x0101bbb0                cupsSetUserAgent
                0x0101b4f0                cupsSetServerCertCB
                0x0101bf04                _cupsSetDefaults
                0x0101c378                cupsEncryption
                0x0101b53c                cupsSetPasswordCB2
                0x0101b5c8                cupsSetPasswordCB
                0x0101bc60                cupsUserAgent
                0x0101b4e0                _cupsGetPassword
                0x0101c474                cupsGetPassword2
                0x0101c414                cupsSetCredentials
 .text          0x0101c50c     0x12b4 ../cups/libcups.a(array.o)
                0x0101cf8c                cupsArrayNew
                0x0101c700                cupsArrayNext
                0x0101c50c                cupsArrayClear
                0x0101c750                cupsArrayPrev
                0x0101c6c0                cupsArrayLast
                0x0101c7f8                cupsArraySave
                0x0101d738                _cupsArrayNewStrings
                0x0101cc38                cupsArrayRemove
                0x0101d2c4                cupsArrayAdd
                0x0101cd8c                cupsArrayDelete
                0x0101c848                cupsArrayUserData
                0x0101caa4                cupsArrayFind
                0x0101d2f0                cupsArrayDup
                0x0101c668                cupsArrayGetInsert
                0x0101c798                cupsArrayRestore
                0x0101c610                cupsArrayFirst
                0x0101cf64                cupsArrayNew2
                0x0101c688                cupsArrayIndex
                0x0101c5b0                cupsArrayCount
                0x0101d298                cupsArrayInsert
                0x0101c648                cupsArrayGetIndex
                0x0101ce50                cupsArrayNew3
                0x0101c5d0                cupsArrayCurrent
                0x0101d45c                _cupsArrayAddStrings
 .text          0x0101d7c0      0x4b0 ../cups/libcups.a(auth.o)
                0x0101d7c4                cupsDoAuthentication
 .text          0x0101dc70     0x2bcc ../cups/libcups.a(file.o)
                0x0101f970                cupsFileOpen
                0x0101f194                cupsFilePrintf
                0x0101dce0                cupsFileNumber
                0x0101dd20                cupsFileUnlock
                0x0101ecdc                cupsFileGetLine
                0x010200a0                _cupsFileCheck
                0x0101ff6c                _cupsFileCheckFilter
                0x0101e804                cupsFileSeek
                0x0101dcb0                cupsFileLock
                0x0101dc70                cupsFileCompression
                0x0101e108                cupsFilePutChar
                0x0101eeec                cupsFilePuts
                0x0101f404                cupsFileOpenFd
                0x0101f058                cupsFilePutConf
                0x0101dc90                cupsFileEOF
                0x0102049c                cupsFileGetConf
                0x0101ee68                cupsFileGetChar
                0x0101fd00                cupsFileClose
                0x0101df08                cupsFileFlush
                0x0101f788                cupsFileStderr
                0x0101e1e4                cupsFileRewind
                0x0101dfa0                cupsFileWrite
                0x0101eb8c                cupsFileGets
                0x0101fb6c                cupsFileFind
                0x0101ea00                cupsFileRead
                0x0101f634                cupsFileStdout
                0x0101f6e4                cupsFileStdin
                0x0101dd00                cupsFileTell
                0x0101eb18                cupsFilePeekChar
 .text          0x0102083c      0x1a0 ../cups/libcups.a(globals.o)
                0x01020848                _cupsGlobalUnlock
                0x0102083c                _cupsGlobalLock
                0x01020858                _cupsGlobals
 .text          0x010209dc     0x1d54 ../cups/libcups.a(ipp-support.o)
                0x0102116c                ippErrorString
                0x01020ea0                ippOpValue
                0x01021db4                ippAttributeString
                0x01020ab4                ippTagValue
                0x010209e0                ippStateString
                0x01021058                ippOpString
                0x01020e5c                ippPort
                0x010212ac                ippEnumValue
                0x01021968                ippCreateRequestedArray
                0x01020a48                ippTagString
                0x01020e24                ippSetPort
                0x010215b8                ippEnumString
                0x01020c58                ippErrorValue
 .text          0x01022730      0x264 ../cups/libcups.a(md5passwd.o)
                0x010228e0                httpMD5
                0x010227b4                httpMD5Final
                0x01022734                httpMD5String
 .text          0x01022994      0x9b0 /SDK/local/newlib/lib/libz.a(crc32.o)
                0x01023080                crc32_z
                0x010232e0                crc32
                0x010232d8                crc32_combine
                0x010232dc                crc32_combine64
                0x01022994                get_crc_table
 .text          0x01023344     0x4be8 /SDK/local/newlib/lib/libz.a(deflate.o)
                0x0102549c                deflate
                0x01023cf8                deflateTune
                0x01024028                deflateResetKeep
                0x01023f88                deflateSetHeader
                0x01024a2c                deflateSetDictionary
                0x01023b64                deflateBound
                0x010248f8                deflateInit_
                0x01024554                deflateInit2_
                0x01023980                deflateReset
                0x01023d98                deflatePrime
                0x01023ed8                deflatePending
                0x010242f4                deflateCopy
                0x01026e70                deflateParams
                0x01024914                deflateGetDictionary
                0x0102417c                deflateEnd
 .text          0x01027f2c     0x2ed0 /SDK/local/newlib/lib/libz.a(inflate.o)
                0x0102a054                inflateCopy
                0x01029ff0                inflateUndermine
                0x0102a9c8                inflateReset2
                0x010281d4                inflate
                0x0102a210                inflateSyncPoint
                0x0102a284                inflateGetHeader
                0x0102a414                inflateGetDictionary
                0x01029f6c                inflateValidate
                0x0102acec                inflateInit_
                0x01029ee0                inflateMark
                0x01029dc4                inflatePrime
                0x01027f2c                inflateResetKeep
                0x0102a5b0                inflateReset
                0x0102a698                inflateSync
                0x01029e78                inflateCodesUsed
                0x0102a2f8                inflateSetDictionary
                0x0102a4fc                inflateEnd
                0x0102abd0                inflateInit2_
 .text          0x0102adfc      0x7cc /SDK/local/newlib/lib/libz.a(inftrees.o)
                0x0102adfc                inflate_table
 .text          0x0102b5c8     0x24f4 /SDK/local/newlib/lib/libz.a(trees.o)
                0x0102d028                _tr_flush_block
                0x0102c1f0                _tr_stored_block
                0x0102c168                _tr_flush_bits
                0x0102b5c8                _tr_init
                0x0102bc50                _tr_tally
                0x0102c380                _tr_align
 .text          0x0102dabc       0x74 /SDK/local/newlib/lib/libz.a(zutil.o)
                0x0102dabc                zlibVersion
                0x0102dac8                zlibCompileFlags
                0x0102dae8                zcfree
                0x0102dad0                zError
                0x0102db0c                zcalloc
 .text          0x0102db30      0x544 /SDK/local/newlib/lib/libz.a(adler32.o)
                0x0102dea8                adler32
                0x0102df90                adler32_combine
                0x0102deac                adler32_combine64
                0x0102db30                adler32_z
 .text          0x0102e074      0x5c4 /SDK/local/newlib/lib/libz.a(inffast.o)
                0x0102e074                inflate_fast
 .text          0x0102e638     0x2b70 /SDK/local/newlib/lib/libregex.a(regcomp.o)
                0x01030b7c                regcomp
 .text          0x010311a8      0x1c4 /SDK/local/newlib/lib/libregex.a(regerror.o)
                0x010311a8                regerror
 .text          0x0103136c     0x310c /SDK/local/newlib/lib/libregex.a(regexec.o)
                0x010336b4                regexec
 .text          0x01034478       0xbc /SDK/local/newlib/lib/libregex.a(regfree.o)
                0x01034478                regfree
 .text          0x01034534        0x0 /GCC/lib/gcc/ppc-amigaos/4.2.4/newlib/lib/libstdc++.a(functexcept.o)
 .text._ZSt18__throw_bad_typeidv
                0x01034534       0x34 /GCC/lib/gcc/ppc-amigaos/4.2.4/newlib/lib/libstdc++.a(functexcept.o)
                0x01034534                std::__throw_bad_typeid()
 .text._ZSt16__throw_bad_castv
                0x01034568       0x34 /GCC/lib/gcc/ppc-amigaos/4.2.4/newlib/lib/libstdc++.a(functexcept.o)
                0x01034568                std::__throw_bad_cast()
 .text._ZSt17__throw_bad_allocv
                0x0103459c       0x34 /GCC/lib/gcc/ppc-amigaos/4.2.4/newlib/lib/libstdc++.a(functexcept.o)
                0x0103459c                std::__throw_bad_alloc()
 .text._ZSt21__throw_bad_exceptionv
                0x010345d0       0x34 /GCC/lib/gcc/ppc-amigaos/4.2.4/newlib/lib/libstdc++.a(functexcept.o)
                0x010345d0                std::__throw_bad_exception()
 .text._ZNSt15underflow_errorD0Ev
                0x01034604       0x40 /GCC/lib/gcc/ppc-amigaos/4.2.4/newlib/lib/libstdc++.a(functexcept.o)
                0x01034604                std::underflow_error::~underflow_error()
 .text._ZNSt15underflow_errorD1Ev
                0x01034644       0x2c /GCC/lib/gcc/ppc-amigaos/4.2.4/newlib/lib/libstdc++.a(functexcept.o)
                0x01034644                std::underflow_error::~underflow_error()
 .text._ZNSt14overflow_errorD0Ev
                0x01034670       0x40 /GCC/lib/gcc/ppc-amigaos/4.2.4/newlib/lib/libstdc++.a(functexcept.o)
                0x01034670                std::overflow_error::~overflow_error()
 .text._ZNSt14overflow_errorD1Ev
                0x010346b0       0x2c /GCC/lib/gcc/ppc-amigaos/4.2.4/newlib/lib/libstdc++.a(functexcept.o)
                0x010346b0                std::overflow_error::~overflow_error()
 .text._ZNSt11range_errorD0Ev
                0x010346dc       0x40 /GCC/lib/gcc/ppc-amigaos/4.2.4/newlib/lib/libstdc++.a(functexcept.o)
                0x010346dc                std::range_error::~range_error()
 .text._ZNSt11range_errorD1Ev
                0x0103471c       0x2c /GCC/lib/gcc/ppc-amigaos/4.2.4/newlib/lib/libstdc++.a(functexcept.o)
                0x0103471c                std::range_error::~range_error()
 .text._ZNSt12out_of_rangeD0Ev
                0x01034748       0x40 /GCC/lib/gcc/ppc-amigaos/4.2.4/newlib/lib/libstdc++.a(functexcept.o)
                0x01034748                std::out_of_range::~out_of_range()
 .text._ZNSt12out_of_rangeD1Ev
                0x01034788       0x2c /GCC/lib/gcc/ppc-amigaos/4.2.4/newlib/lib/libstdc++.a(functexcept.o)
                0x01034788                std::out_of_range::~out_of_range()
 .text._ZNSt12length_errorD0Ev
                0x010347b4       0x40 /GCC/lib/gcc/ppc-amigaos/4.2.4/newlib/lib/libstdc++.a(functexcept.o)
                0x010347b4                std::length_error::~length_error()
 .text._ZNSt12length_errorD1Ev
                0x010347f4       0x2c /GCC/lib/gcc/ppc-amigaos/4.2.4/newlib/lib/libstdc++.a(functexcept.o)
                0x010347f4                std::length_error::~length_error()
 .text._ZNSt16invalid_argumentD0Ev
                0x01034820       0x40 /GCC/lib/gcc/ppc-amigaos/4.2.4/newlib/lib/libstdc++.a(functexcept.o)
                0x01034820                std::invalid_argument::~invalid_argument()
 .text._ZNSt16invalid_argumentD1Ev
                0x01034860       0x2c /GCC/lib/gcc/ppc-amigaos/4.2.4/newlib/lib/libstdc++.a(functexcept.o)
                0x01034860                std::invalid_argument::~invalid_argument()
 .text._ZNSt12domain_errorD0Ev
                0x0103488c       0x40 /GCC/lib/gcc/ppc-amigaos/4.2.4/newlib/lib/libstdc++.a(functexcept.o)
                0x0103488c                std::domain_error::~domain_error()
 .text._ZNSt12domain_errorD1Ev
                0x010348cc       0x2c /GCC/lib/gcc/ppc-amigaos/4.2.4/newlib/lib/libstdc++.a(functexcept.o)
                0x010348cc                std::domain_error::~domain_error()
 .text._ZSt19__throw_ios_failurePKc
                0x010348f8      0x17c /GCC/lib/gcc/ppc-amigaos/4.2.4/newlib/lib/libstdc++.a(functexcept.o)
                0x010348f8                std::__throw_ios_failure(char const*)
 .text._ZSt19__throw_logic_errorPKc
                0x01034a74      0x1e8 /GCC/lib/gcc/ppc-amigaos/4.2.4/newlib/lib/libstdc++.a(functexcept.o)
                0x01034a74                std::__throw_logic_error(char const*)
 .text._ZSt23__throw_underflow_errorPKc
                0x01034c5c      0x1e8 /GCC/lib/gcc/ppc-amigaos/4.2.4/newlib/lib/libstdc++.a(functexcept.o)
                0x01034c5c                std::__throw_underflow_error(char const*)
 .text._ZSt22__throw_overflow_errorPKc
                0x01034e44      0x1e8 /GCC/lib/gcc/ppc-amigaos/4.2.4/newlib/lib/libstdc++.a(functexcept.o)
                0x01034e44                std::__throw_overflow_error(char const*)
 .text._ZSt24__throw_invalid_argumentPKc
                0x0103502c      0x1e8 /GCC/lib/gcc/ppc-amigaos/4.2.4/newlib/lib/libstdc++.a(functexcept.o)
                0x0103502c                std::__throw_invalid_argument(char const*)
 .text._ZSt20__throw_domain_errorPKc
                0x01035214      0x1e8 /GCC/lib/gcc/ppc-amigaos/4.2.4/newlib/lib/libstdc++.a(functexcept.o)
                0x01035214                std::__throw_domain_error(char const*)
 .text._ZSt19__throw_range_errorPKc
                0x010353fc      0x1e8 /GCC/lib/gcc/ppc-amigaos/4.2.4/newlib/lib/libstdc++.a(functexcept.o)
                0x010353fc                std::__throw_range_error(char const*)
 .text._ZSt21__throw_runtime_errorPKc
                0x010355e4      0x1e8 /GCC/lib/gcc/ppc-amigaos/4.2.4/newlib/lib/libstdc++.a(functexcept.o)
                0x010355e4                std::__throw_runtime_error(char const*)
 .text._ZSt20__throw_out_of_rangePKc
                0x010357cc      0x1e8 /GCC/lib/gcc/ppc-amigaos/4.2.4/newlib/lib/libstdc++.a(functexcept.o)
                0x010357cc                std::__throw_out_of_range(char const*)
 .text._ZSt20__throw_length_errorPKc
                0x010359b4      0x1e8 /GCC/lib/gcc/ppc-amigaos/4.2.4/newlib/lib/libstdc++.a(functexcept.o)
                0x010359b4                std::__throw_length_error(char const*)
 .text          0x01035b9c        0x0 /GCC/lib/gcc/ppc-amigaos/4.2.4/newlib/lib/libstdc++.a(ios_failure.o)
 .text._ZNKSt8ios_base7failure4whatEv
                0x01035b9c        0x8 /GCC/lib/gcc/ppc-amigaos/4.2.4/newlib/lib/libstdc++.a(ios_failure.o)
                0x01035b9c                std::ios_base::failure::what() const
 .text._ZNSt8ios_base7failureD1Ev
                0x01035ba4       0x74 /GCC/lib/gcc/ppc-amigaos/4.2.4/newlib/lib/libstdc++.a(ios_failure.o)
                0x01035ba4                std::ios_base::failure::~failure()
 .text._ZNSt8ios_base7failureC1ERKSs
                0x01035c18      0x20c /GCC/lib/gcc/ppc-amigaos/4.2.4/newlib/lib/libstdc++.a(ios_failure.o)
                0x01035c18                std::ios_base::failure::failure(std::string const&)
 .text._ZNSt8ios_base7failureC2ERKSs
                0x01035e24      0x20c /GCC/lib/gcc/ppc-amigaos/4.2.4/newlib/lib/libstdc++.a(ios_failure.o)
                0x01035e24                std::ios_base::failure::failure(std::string const&)
 .text._ZNSt8ios_base7failureD2Ev
                0x01036030       0x74 /GCC/lib/gcc/ppc-amigaos/4.2.4/newlib/lib/libstdc++.a(ios_failure.o)
                0x01036030                std::ios_base::failure::~failure()
 .text._ZNSt8ios_base7failureD0Ev
                0x010360a4       0x7c /GCC/lib/gcc/ppc-amigaos/4.2.4/newlib/lib/libstdc++.a(ios_failure.o)
                0x010360a4                std::ios_base::failure::~failure()
 .text          0x01036120        0x0 /GCC/lib/gcc/ppc-amigaos/4.2.4/newlib/lib/libstdc++.a(stdexcept.o)
 .text._ZNKSt13runtime_error4whatEv
                0x01036120        0x8 /GCC/lib/gcc/ppc-amigaos/4.2.4/newlib/lib/libstdc++.a(stdexcept.o)
                0x01036120                std::runtime_error::what() const
 .text._ZNSt11logic_errorD1Ev
                0x01036128       0x74 /GCC/lib/gcc/ppc-amigaos/4.2.4/newlib/lib/libstdc++.a(stdexcept.o)
                0x01036128                std::logic_error::~logic_error()
 .text._ZNSt13runtime_errorC2ERKSs
                0x0103619c      0x1e8 /GCC/lib/gcc/ppc-amigaos/4.2.4/newlib/lib/libstdc++.a(stdexcept.o)
                0x0103619c                std::runtime_error::runtime_error(std::string const&)
 .text._ZNSt15underflow_errorC1ERKSs
                0x01036384       0x38 /GCC/lib/gcc/ppc-amigaos/4.2.4/newlib/lib/libstdc++.a(stdexcept.o)
                0x01036384                std::underflow_error::underflow_error(std::string const&)
 .text._ZNSt15underflow_errorC2ERKSs
                0x010363bc       0x38 /GCC/lib/gcc/ppc-amigaos/4.2.4/newlib/lib/libstdc++.a(stdexcept.o)
                0x010363bc                std::underflow_error::underflow_error(std::string const&)
 .text._ZNSt14overflow_errorC1ERKSs
                0x010363f4       0x38 /GCC/lib/gcc/ppc-amigaos/4.2.4/newlib/lib/libstdc++.a(stdexcept.o)
                0x010363f4                std::overflow_error::overflow_error(std::string const&)
 .text._ZNSt14overflow_errorC2ERKSs
                0x0103642c       0x38 /GCC/lib/gcc/ppc-amigaos/4.2.4/newlib/lib/libstdc++.a(stdexcept.o)
                0x0103642c                std::overflow_error::overflow_error(std::string const&)
 .text._ZNSt11range_errorC1ERKSs
                0x01036464       0x38 /GCC/lib/gcc/ppc-amigaos/4.2.4/newlib/lib/libstdc++.a(stdexcept.o)
                0x01036464                std::range_error::range_error(std::string const&)
 .text._ZNSt11range_errorC2ERKSs
                0x0103649c       0x38 /GCC/lib/gcc/ppc-amigaos/4.2.4/newlib/lib/libstdc++.a(stdexcept.o)
                0x0103649c                std::range_error::range_error(std::string const&)
 .text._ZNSt11logic_errorC1ERKSs
                0x010364d4      0x1e8 /GCC/lib/gcc/ppc-amigaos/4.2.4/newlib/lib/libstdc++.a(stdexcept.o)
                0x010364d4                std::logic_error::logic_error(std::string const&)
 .text._ZNSt11logic_errorC2ERKSs
                0x010366bc      0x1e8 /GCC/lib/gcc/ppc-amigaos/4.2.4/newlib/lib/libstdc++.a(stdexcept.o)
                0x010366bc                std::logic_error::logic_error(std::string const&)
 .text._ZNSt12out_of_rangeC1ERKSs
                0x010368a4       0x38 /GCC/lib/gcc/ppc-amigaos/4.2.4/newlib/lib/libstdc++.a(stdexcept.o)
                0x010368a4                std::out_of_range::out_of_range(std::string const&)
 .text._ZNSt12out_of_rangeC2ERKSs
                0x010368dc       0x38 /GCC/lib/gcc/ppc-amigaos/4.2.4/newlib/lib/libstdc++.a(stdexcept.o)
                0x010368dc                std::out_of_range::out_of_range(std::string const&)
 .text._ZNSt12length_errorC1ERKSs
                0x01036914       0x38 /GCC/lib/gcc/ppc-amigaos/4.2.4/newlib/lib/libstdc++.a(stdexcept.o)
                0x01036914                std::length_error::length_error(std::string const&)
 .text._ZNSt12length_errorC2ERKSs
                0x0103694c       0x38 /GCC/lib/gcc/ppc-amigaos/4.2.4/newlib/lib/libstdc++.a(stdexcept.o)
                0x0103694c                std::length_error::length_error(std::string const&)
 .text._ZNSt16invalid_argumentC1ERKSs
                0x01036984       0x38 /GCC/lib/gcc/ppc-amigaos/4.2.4/newlib/lib/libstdc++.a(stdexcept.o)
                0x01036984                std::invalid_argument::invalid_argument(std::string const&)
 .text._ZNSt16invalid_argumentC2ERKSs
                0x010369bc       0x38 /GCC/lib/gcc/ppc-amigaos/4.2.4/newlib/lib/libstdc++.a(stdexcept.o)
                0x010369bc                std::invalid_argument::invalid_argument(std::string const&)
 .text._ZNSt12domain_errorC1ERKSs
                0x010369f4       0x38 /GCC/lib/gcc/ppc-amigaos/4.2.4/newlib/lib/libstdc++.a(stdexcept.o)
                0x010369f4                std::domain_error::domain_error(std::string const&)
 .text._ZNSt12domain_errorC2ERKSs
                0x01036a2c       0x38 /GCC/lib/gcc/ppc-amigaos/4.2.4/newlib/lib/libstdc++.a(stdexcept.o)
                0x01036a2c                std::domain_error::domain_error(std::string const&)
 .text._ZNKSt11logic_error4whatEv
                0x01036a64        0x8 /GCC/lib/gcc/ppc-amigaos/4.2.4/newlib/lib/libstdc++.a(stdexcept.o)
                0x01036a64                std::logic_error::what() const
 .text._ZNSt13runtime_errorC1ERKSs
                0x01036a6c      0x1e8 /GCC/lib/gcc/ppc-amigaos/4.2.4/newlib/lib/libstdc++.a(stdexcept.o)
                0x01036a6c                std::runtime_error::runtime_error(std::string const&)
 .text._ZNSt13runtime_errorD1Ev
                0x01036c54       0x74 /GCC/lib/gcc/ppc-amigaos/4.2.4/newlib/lib/libstdc++.a(stdexcept.o)
                0x01036c54                std::runtime_error::~runtime_error()
 .text._ZNSt13runtime_errorD2Ev
                0x01036cc8       0x74 /GCC/lib/gcc/ppc-amigaos/4.2.4/newlib/lib/libstdc++.a(stdexcept.o)
                0x01036cc8                std::runtime_error::~runtime_error()
 .text._ZNSt13runtime_errorD0Ev
                0x01036d3c       0x7c /GCC/lib/gcc/ppc-amigaos/4.2.4/newlib/lib/libstdc++.a(stdexcept.o)
                0x01036d3c                std::runtime_error::~runtime_error()
 .text._ZNSt11logic_errorD2Ev
                0x01036db8       0x74 /GCC/lib/gcc/ppc-amigaos/4.2.4/newlib/lib/libstdc++.a(stdexcept.o)
                0x01036db8                std::logic_error::~logic_error()
 .text._ZNSt11logic_errorD0Ev
                0x01036e2c       0x7c /GCC/lib/gcc/ppc-amigaos/4.2.4/newlib/lib/libstdc++.a(stdexcept.o)
                0x01036e2c                std::logic_error::~logic_error()
 .text          0x01036ea8        0x0 /GCC/lib/gcc/ppc-amigaos/4.2.4/newlib/lib/libstdc++.a(tree.o)
 .text._ZSt18_Rb_tree_incrementPSt18_Rb_tree_node_base
                0x01036ea8       0x70 /GCC/lib/gcc/ppc-amigaos/4.2.4/newlib/lib/libstdc++.a(tree.o)
                0x01036ea8                std::_Rb_tree_increment(std::_Rb_tree_node_base*)
 .text._ZSt18_Rb_tree_incrementPKSt18_Rb_tree_node_base
                0x01036f18        0x4 /GCC/lib/gcc/ppc-amigaos/4.2.4/newlib/lib/libstdc++.a(tree.o)
                0x01036f18                std::_Rb_tree_increment(std::_Rb_tree_node_base const*)
 .text._ZSt18_Rb_tree_decrementPSt18_Rb_tree_node_base
                0x01036f1c       0x80 /GCC/lib/gcc/ppc-amigaos/4.2.4/newlib/lib/libstdc++.a(tree.o)
                0x01036f1c                std::_Rb_tree_decrement(std::_Rb_tree_node_base*)
 .text._ZSt18_Rb_tree_decrementPKSt18_Rb_tree_node_base
                0x01036f9c        0x4 /GCC/lib/gcc/ppc-amigaos/4.2.4/newlib/lib/libstdc++.a(tree.o)
                0x01036f9c                std::_Rb_tree_decrement(std::_Rb_tree_node_base const*)
 .text._ZSt20_Rb_tree_rotate_leftPSt18_Rb_tree_node_baseRS0_
                0x01036fa0       0x6c /GCC/lib/gcc/ppc-amigaos/4.2.4/newlib/lib/libstdc++.a(tree.o)
                0x01036fa0                std::_Rb_tree_rotate_left(std::_Rb_tree_node_base*, std::_Rb_tree_node_base*&)
 .text._ZSt21_Rb_tree_rotate_rightPSt18_Rb_tree_node_baseRS0_
                0x0103700c       0x6c /GCC/lib/gcc/ppc-amigaos/4.2.4/newlib/lib/libstdc++.a(tree.o)
                0x0103700c                std::_Rb_tree_rotate_right(std::_Rb_tree_node_base*, std::_Rb_tree_node_base*&)
 .text._ZSt29_Rb_tree_insert_and_rebalancebPSt18_Rb_tree_node_baseS0_RS_
                0x01037078      0x1cc /GCC/lib/gcc/ppc-amigaos/4.2.4/newlib/lib/libstdc++.a(tree.o)
                0x01037078                std::_Rb_tree_insert_and_rebalance(bool, std::_Rb_tree_node_base*, std::_Rb_tree_node_base*, std::_Rb_tree_node_base&)
 .text._ZSt20_Rb_tree_black_countPKSt18_Rb_tree_node_baseS1_
                0x01037244       0x38 /GCC/lib/gcc/ppc-amigaos/4.2.4/newlib/lib/libstdc++.a(tree.o)
                0x01037244                std::_Rb_tree_black_count(std::_Rb_tree_node_base const*, std::_Rb_tree_node_base const*)
 .text._ZSt28_Rb_tree_rebalance_for_erasePSt18_Rb_tree_node_baseRS_
                0x0103727c      0x3f0 /GCC/lib/gcc/ppc-amigaos/4.2.4/newlib/lib/libstdc++.a(tree.o)
                0x0103727c                std::_Rb_tree_rebalance_for_erase(std::_Rb_tree_node_base*, std::_Rb_tree_node_base&)
 .text          0x0103766c        0x0 /GCC/lib/gcc/ppc-amigaos/4.2.4/newlib/lib/libstdc++.a(string-inst.o)
 .text._ZNKSs7_M_dataEv
                0x0103766c        0x8 /GCC/lib/gcc/ppc-amigaos/4.2.4/newlib/lib/libstdc++.a(string-inst.o)
                0x0103766c                std::string::_M_data() const
 .text._ZNSs7_M_dataEPc
                0x01037674        0xc /GCC/lib/gcc/ppc-amigaos/4.2.4/newlib/lib/libstdc++.a(string-inst.o)
                0x01037674                std::string::_M_data(char*)
 .text._ZNKSs6_M_repEv
                0x01037680        0xc /GCC/lib/gcc/ppc-amigaos/4.2.4/newlib/lib/libstdc++.a(string-inst.o)
                0x01037680                std::string::_M_rep() const
 .text._ZNKSs9_M_ibeginEv
                0x0103768c        0x8 /GCC/lib/gcc/ppc-amigaos/4.2.4/newlib/lib/libstdc++.a(string-inst.o)
                0x0103768c                std::string::_M_ibegin() const
 .text._ZNKSs7_M_iendEv
                0x01037694       0x10 /GCC/lib/gcc/ppc-amigaos/4.2.4/newlib/lib/libstdc++.a(string-inst.o)
                0x01037694                std::string::_M_iend() const
 .text._ZNKSs8_M_limitEjj
                0x010376a4       0x20 /GCC/lib/gcc/ppc-amigaos/4.2.4/newlib/lib/libstdc++.a(string-inst.o)
                0x010376a4                std::string::_M_limit(unsigned int, unsigned int) const
 .text._ZNKSs11_M_disjunctEPKc
                0x010376c4       0x2c /GCC/lib/gcc/ppc-amigaos/4.2.4/newlib/lib/libstdc++.a(string-inst.o)
                0x010376c4                std::string::_M_disjunct(char const*) const
 .text._ZNSs12_S_empty_repEv
                0x010376f0        0xc /GCC/lib/gcc/ppc-amigaos/4.2.4/newlib/lib/libstdc++.a(string-inst.o)
                0x010376f0                std::string::_S_empty_rep()
 .text._ZNSsC1Ev
                0x010376fc       0x14 /GCC/lib/gcc/ppc-amigaos/4.2.4/newlib/lib/libstdc++.a(string-inst.o)
                0x010376fc                std::basic_string<char, std::char_traits<char>, std::allocator<char> >::basic_string()
 .text._ZNKSs5beginEv
                0x01037710        0x8 /GCC/lib/gcc/ppc-amigaos/4.2.4/newlib/lib/libstdc++.a(string-inst.o)
                0x01037710                std::string::begin() const
 .text._ZNKSs3endEv
                0x01037718       0x10 /GCC/lib/gcc/ppc-amigaos/4.2.4/newlib/lib/libstdc++.a(string-inst.o)
                0x01037718                std::string::end() const
 .text._ZNKSs4sizeEv
                0x01037728        0xc /GCC/lib/gcc/ppc-amigaos/4.2.4/newlib/lib/libstdc++.a(string-inst.o)
                0x01037728                std::string::size() const
 .text._ZNKSs8max_sizeEv
                0x01037734        0xc /GCC/lib/gcc/ppc-amigaos/4.2.4/newlib/lib/libstdc++.a(string-inst.o)
                0x01037734                std::string::max_size() const
 .text._ZNKSs8capacityEv
                0x01037740        0xc /GCC/lib/gcc/ppc-amigaos/4.2.4/newlib/lib/libstdc++.a(string-inst.o)
                0x01037740                std::string::capacity() const
 .text._ZNKSs4dataEv
                0x0103774c        0x8 /GCC/lib/gcc/ppc-amigaos/4.2.4/newlib/lib/libstdc++.a(string-inst.o)
                0x0103774c                std::string::data() const
 .text._ZNKSs13get_allocatorEv
                0x01037754        0x4 /GCC/lib/gcc/ppc-amigaos/4.2.4/newlib/lib/libstdc++.a(string-inst.o)
                0x01037754                std::string::get_allocator() const
 .text._ZNSs12_Alloc_hiderC1EPcRKSaIcE
                0x01037758        0x8 /GCC/lib/gcc/ppc-amigaos/4.2.4/newlib/lib/libstdc++.a(string-inst.o)
                0x01037758                std::string::_Alloc_hider::_Alloc_hider(char*, std::allocator<char> const&)
 .text._ZNSs4_Rep12_S_empty_repEv
                0x01037760        0xc /GCC/lib/gcc/ppc-amigaos/4.2.4/newlib/lib/libstdc++.a(string-inst.o)
                0x01037760                std::string::_Rep::_S_empty_rep()
 .text._ZNKSs4_Rep12_M_is_leakedEv
                0x0103776c        0xc /GCC/lib/gcc/ppc-amigaos/4.2.4/newlib/lib/libstdc++.a(string-inst.o)
                0x0103776c                std::string::_Rep::_M_is_leaked() const
 .text._ZNKSs4_Rep12_M_is_sharedEv
                0x01037778       0x14 /GCC/lib/gcc/ppc-amigaos/4.2.4/newlib/lib/libstdc++.a(string-inst.o)
                0x01037778                std::string::_Rep::_M_is_shared() const
 .text._ZNSs4_Rep13_M_set_leakedEv
                0x0103778c        0xc /GCC/lib/gcc/ppc-amigaos/4.2.4/newlib/lib/libstdc++.a(string-inst.o)
                0x0103778c                std::string::_Rep::_M_set_leaked()
 .text._ZNSs4_Rep15_M_set_sharableEv
                0x01037798        0xc /GCC/lib/gcc/ppc-amigaos/4.2.4/newlib/lib/libstdc++.a(string-inst.o)
                0x01037798                std::string::_Rep::_M_set_sharable()
 .text._ZNSs4_Rep26_M_set_length_and_sharableEj
                0x010377a4       0x18 /GCC/lib/gcc/ppc-amigaos/4.2.4/newlib/lib/libstdc++.a(string-inst.o)
                0x010377a4                std::string::_Rep::_M_set_length_and_sharable(unsigned int)
 .text._ZNSs4_Rep10_M_refdataEv
                0x010377bc        0x8 /GCC/lib/gcc/ppc-amigaos/4.2.4/newlib/lib/libstdc++.a(string-inst.o)
                0x010377bc                std::string::_Rep::_M_refdata()
 .text._ZN9__gnu_cxxeqIPcSsEEbRKNS_17__normal_iteratorIT_T0_EES7_
                0x010377c4       0x18 /GCC/lib/gcc/ppc-amigaos/4.2.4/newlib/lib/libstdc++.a(string-inst.o)
                0x010377c4                bool __gnu_cxx::operator==<char*, std::string>(__gnu_cxx::__normal_iterator<char*, std::string> const&, __gnu_cxx::__normal_iterator<char*, std::string> const&)
 .text._ZNSs12_Alloc_hiderC2EPcRKSaIcE
                0x010377dc        0x8 /GCC/lib/gcc/ppc-amigaos/4.2.4/newlib/lib/libstdc++.a(string-inst.o)
                0x010377dc                std::string::_Alloc_hider::_Alloc_hider(char*, std::allocator<char> const&)
 .text._ZNSs4_Rep10_M_refcopyEv
                0x010377e4       0x28 /GCC/lib/gcc/ppc-amigaos/4.2.4/newlib/lib/libstdc++.a(string-inst.o)
                0x010377e4                std::string::_Rep::_M_refcopy()
 .text._ZNKSs15_M_check_lengthEjjPKc
                0x0103780c       0x44 /GCC/lib/gcc/ppc-amigaos/4.2.4/newlib/lib/libstdc++.a(string-inst.o)
                0x0103780c                std::string::_M_check_length(unsigned int, unsigned int, char const*) const
 .text._ZNKSs8_M_checkEjPKc
                0x01037850       0x38 /GCC/lib/gcc/ppc-amigaos/4.2.4/newlib/lib/libstdc++.a(string-inst.o)
                0x01037850                std::string::_M_check(unsigned int, char const*) const
 .text._ZNSs9_M_assignEPcjc
                0x01037888       0x4c /GCC/lib/gcc/ppc-amigaos/4.2.4/newlib/lib/libstdc++.a(string-inst.o)
                0x01037888                std::string::_M_assign(char*, unsigned int, char)
 .text._ZNSs7_M_moveEPcPKcj
                0x010378d4       0x40 /GCC/lib/gcc/ppc-amigaos/4.2.4/newlib/lib/libstdc++.a(string-inst.o)
                0x010378d4                std::string::_M_move(char*, char const*, unsigned int)
 .text._ZNSs7_M_copyEPcPKcj
                0x01037914       0x40 /GCC/lib/gcc/ppc-amigaos/4.2.4/newlib/lib/libstdc++.a(string-inst.o)
                0x01037914                std::string::_M_copy(char*, char const*, unsigned int)
 .text._ZNKSs5c_strEv
                0x01037954        0x8 /GCC/lib/gcc/ppc-amigaos/4.2.4/newlib/lib/libstdc++.a(string-inst.o)
                0x01037954                std::string::c_str() const
 .text._ZNKSsixEj
                0x0103795c        0xc /GCC/lib/gcc/ppc-amigaos/4.2.4/newlib/lib/libstdc++.a(string-inst.o)
                0x0103795c                std::string::operator[](unsigned int) const
 .text._ZNKSs4findEcj
                0x01037968       0x68 /GCC/lib/gcc/ppc-amigaos/4.2.4/newlib/lib/libstdc++.a(string-inst.o)
                0x01037968                std::string::find(char, unsigned int) const
 .text._ZNKSs13find_first_ofEcj
                0x010379d0       0x20 /GCC/lib/gcc/ppc-amigaos/4.2.4/newlib/lib/libstdc++.a(string-inst.o)
                0x010379d0                std::string::find_first_of(char, unsigned int) const
 .text._ZNKSs2atEj
                0x010379f0       0x3c /GCC/lib/gcc/ppc-amigaos/4.2.4/newlib/lib/libstdc++.a(string-inst.o)
                0x010379f0                std::string::at(unsigned int) const
 .text._ZNKSs5emptyEv
                0x01037a2c       0x14 /GCC/lib/gcc/ppc-amigaos/4.2.4/newlib/lib/libstdc++.a(string-inst.o)
                0x01037a2c                std::string::empty() const
 .text._ZNKSs6lengthEv
                0x01037a40        0xc /GCC/lib/gcc/ppc-amigaos/4.2.4/newlib/lib/libstdc++.a(string-inst.o)
                0x01037a40                std::string::length() const
 .text._ZNSsC2Ev
                0x01037a4c       0x14 /GCC/lib/gcc/ppc-amigaos/4.2.4/newlib/lib/libstdc++.a(string-inst.o)
                0x01037a4c                std::basic_string<char, std::char_traits<char>, std::allocator<char> >::basic_string()
 .text._ZN9__gnu_cxxeqIPKcSsEEbRKNS_17__normal_iteratorIT_T0_EES8_
                0x01037a60       0x18 /GCC/lib/gcc/ppc-amigaos/4.2.4/newlib/lib/libstdc++.a(string-inst.o)
                0x01037a60                bool __gnu_cxx::operator==<char const*, std::string>(__gnu_cxx::__normal_iterator<char const*, std::string> const&, __gnu_cxx::__normal_iterator<char const*, std::string> const&)
 .text._ZNKSs16find_last_not_ofEcj
                0x01037a78       0x58 /GCC/lib/gcc/ppc-amigaos/4.2.4/newlib/lib/libstdc++.a(string-inst.o)
                0x01037a78                std::string::find_last_not_of(char, unsigned int) const
 .text._ZNKSs17find_first_not_ofEcj
                0x01037ad0       0x4c /GCC/lib/gcc/ppc-amigaos/4.2.4/newlib/lib/libstdc++.a(string-inst.o)
                0x01037ad0                std::string::find_first_not_of(char, unsigned int) const
 .text._ZNKSs5rfindEcj
                0x01037b1c       0x64 /GCC/lib/gcc/ppc-amigaos/4.2.4/newlib/lib/libstdc++.a(string-inst.o)
                0x01037b1c                std::string::rfind(char, unsigned int) const
 .text._ZNKSs12find_last_ofEcj
                0x01037b80       0x20 /GCC/lib/gcc/ppc-amigaos/4.2.4/newlib/lib/libstdc++.a(string-inst.o)
                0x01037b80                std::string::find_last_of(char, unsigned int) const
 .text._ZNSs4_Rep9_S_createEjjRKSaIcE
                0x01037ba0      0x278 /GCC/lib/gcc/ppc-amigaos/4.2.4/newlib/lib/libstdc++.a(string-inst.o)
                0x01037ba0                std::string::_Rep::_S_create(unsigned int, unsigned int, std::allocator<char> const&)
 .text._ZNSs4_Rep10_M_destroyERKSaIcE
                0x01037e18       0x20 /GCC/lib/gcc/ppc-amigaos/4.2.4/newlib/lib/libstdc++.a(string-inst.o)
                0x01037e18                std::string::_Rep::_M_destroy(std::allocator<char> const&)
 .text._ZNSs4_Rep10_M_disposeERKSaIcE
                0x01037e38       0x48 /GCC/lib/gcc/ppc-amigaos/4.2.4/newlib/lib/libstdc++.a(string-inst.o)
                0x01037e38                std::string::_Rep::_M_dispose(std::allocator<char> const&)
 .text._ZNKSs16find_last_not_ofEPKcjj
                0x01037e80       0xdc /GCC/lib/gcc/ppc-amigaos/4.2.4/newlib/lib/libstdc++.a(string-inst.o)
                0x01037e80                std::string::find_last_not_of(char const*, unsigned int, unsigned int) const
 .text._ZNKSs16find_last_not_ofERKSsj
                0x01037f5c       0x28 /GCC/lib/gcc/ppc-amigaos/4.2.4/newlib/lib/libstdc++.a(string-inst.o)
                0x01037f5c                std::string::find_last_not_of(std::string const&, unsigned int) const
 .text._ZNKSs17find_first_not_ofEPKcjj
                0x01037f84       0xb8 /GCC/lib/gcc/ppc-amigaos/4.2.4/newlib/lib/libstdc++.a(string-inst.o)
                0x01037f84                std::string::find_first_not_of(char const*, unsigned int, unsigned int) const
 .text._ZNKSs17find_first_not_ofERKSsj
                0x0103803c       0x28 /GCC/lib/gcc/ppc-amigaos/4.2.4/newlib/lib/libstdc++.a(string-inst.o)
                0x0103803c                std::string::find_first_not_of(std::string const&, unsigned int) const
 .text._ZNKSs12find_last_ofEPKcjj
                0x01038064      0x108 /GCC/lib/gcc/ppc-amigaos/4.2.4/newlib/lib/libstdc++.a(string-inst.o)
                0x01038064                std::string::find_last_of(char const*, unsigned int, unsigned int) const
 .text._ZNKSs12find_last_ofERKSsj
                0x0103816c       0x28 /GCC/lib/gcc/ppc-amigaos/4.2.4/newlib/lib/libstdc++.a(string-inst.o)
                0x0103816c                std::string::find_last_of(std::string const&, unsigned int) const
 .text._ZNKSs13find_first_ofEPKcjj
                0x01038194       0xbc /GCC/lib/gcc/ppc-amigaos/4.2.4/newlib/lib/libstdc++.a(string-inst.o)
                0x01038194                std::string::find_first_of(char const*, unsigned int, unsigned int) const
 .text._ZNKSs13find_first_ofERKSsj
                0x01038250       0x28 /GCC/lib/gcc/ppc-amigaos/4.2.4/newlib/lib/libstdc++.a(string-inst.o)
                0x01038250                std::string::find_first_of(std::string const&, unsigned int) const
 .text._ZNKSs7compareERKSs
                0x01038278       0x68 /GCC/lib/gcc/ppc-amigaos/4.2.4/newlib/lib/libstdc++.a(string-inst.o)
                0x01038278                std::string::compare(std::string const&) const
 .text._ZNKSs5rfindEPKcjj
                0x010382e0       0xac /GCC/lib/gcc/ppc-amigaos/4.2.4/newlib/lib/libstdc++.a(string-inst.o)
                0x010382e0                std::string::rfind(char const*, unsigned int, unsigned int) const
 .text._ZNKSs5rfindERKSsj
                0x0103838c       0x28 /GCC/lib/gcc/ppc-amigaos/4.2.4/newlib/lib/libstdc++.a(string-inst.o)
                0x0103838c                std::string::rfind(std::string const&, unsigned int) const
 .text._ZNKSs4findEPKcjj
                0x010383b4       0xfc /GCC/lib/gcc/ppc-amigaos/4.2.4/newlib/lib/libstdc++.a(string-inst.o)
                0x010383b4                std::string::find(char const*, unsigned int, unsigned int) const
 .text._ZNKSs4findERKSsj
                0x010384b0       0x28 /GCC/lib/gcc/ppc-amigaos/4.2.4/newlib/lib/libstdc++.a(string-inst.o)
                0x010384b0                std::string::find(std::string const&, unsigned int) const
 .text._ZNKSs7compareEPKc
                0x010384d8       0x88 /GCC/lib/gcc/ppc-amigaos/4.2.4/newlib/lib/libstdc++.a(string-inst.o)
                0x010384d8                std::string::compare(char const*) const
 .text._ZNKSs16find_last_not_ofEPKcj
                0x01038560       0x5c /GCC/lib/gcc/ppc-amigaos/4.2.4/newlib/lib/libstdc++.a(string-inst.o)
                0x01038560                std::string::find_last_not_of(char const*, unsigned int) const
 .text._ZNKSs17find_first_not_ofEPKcj
                0x010385bc       0x5c /GCC/lib/gcc/ppc-amigaos/4.2.4/newlib/lib/libstdc++.a(string-inst.o)
                0x010385bc                std::string::find_first_not_of(char const*, unsigned int) const
 .text._ZNKSs12find_last_ofEPKcj
                0x01038618       0x5c /GCC/lib/gcc/ppc-amigaos/4.2.4/newlib/lib/libstdc++.a(string-inst.o)
                0x01038618                std::string::find_last_of(char const*, unsigned int) const
 .text._ZNKSs13find_first_ofEPKcj
                0x01038674       0x5c /GCC/lib/gcc/ppc-amigaos/4.2.4/newlib/lib/libstdc++.a(string-inst.o)
                0x01038674                std::string::find_first_of(char const*, unsigned int) const
 .text._ZNKSs5rfindEPKcj
                0x010386d0       0x5c /GCC/lib/gcc/ppc-amigaos/4.2.4/newlib/lib/libstdc++.a(string-inst.o)
                0x010386d0                std::string::rfind(char const*, unsigned int) const
 .text._ZNKSs4findEPKcj
                0x0103872c       0x5c /GCC/lib/gcc/ppc-amigaos/4.2.4/newlib/lib/libstdc++.a(string-inst.o)
                0x0103872c                std::string::find(char const*, unsigned int) const
 .text._ZNKSs4rendEv
                0x01038788        0xc /GCC/lib/gcc/ppc-amigaos/4.2.4/newlib/lib/libstdc++.a(string-inst.o)
                0x01038788                std::string::rend() const
 .text._ZNKSs6rbeginEv
                0x01038794       0x14 /GCC/lib/gcc/ppc-amigaos/4.2.4/newlib/lib/libstdc++.a(string-inst.o)
                0x01038794                std::string::rbegin() const
 .text._ZNSs12_S_constructEjcRKSaIcE
                0x010387a8       0xbc /GCC/lib/gcc/ppc-amigaos/4.2.4/newlib/lib/libstdc++.a(string-inst.o)
                0x010387a8                std::string::_S_construct(unsigned int, char, std::allocator<char> const&)
 .text._ZNSsC1EjcRKSaIcE
                0x01038864       0x3c /GCC/lib/gcc/ppc-amigaos/4.2.4/newlib/lib/libstdc++.a(string-inst.o)
                0x01038864                std::basic_string<char, std::char_traits<char>, std::allocator<char> >::basic_string(unsigned int, char, std::allocator<char> const&)
 .text._ZNSsC2EjcRKSaIcE
                0x010388a0       0x3c /GCC/lib/gcc/ppc-amigaos/4.2.4/newlib/lib/libstdc++.a(string-inst.o)
                0x010388a0                std::basic_string<char, std::char_traits<char>, std::allocator<char> >::basic_string(unsigned int, char, std::allocator<char> const&)
 .text._ZNSsC1ERKSaIcE
                0x010388dc       0x3c /GCC/lib/gcc/ppc-amigaos/4.2.4/newlib/lib/libstdc++.a(string-inst.o)
                0x010388dc                std::basic_string<char, std::char_traits<char>, std::allocator<char> >::basic_string(std::allocator<char> const&)
 .text._ZNSsC2ERKSaIcE
                0x01038918       0x3c /GCC/lib/gcc/ppc-amigaos/4.2.4/newlib/lib/libstdc++.a(string-inst.o)
                0x01038918                std::basic_string<char, std::char_traits<char>, std::allocator<char> >::basic_string(std::allocator<char> const&)
 .text._ZNKSs7compareEjjPKcj
                0x01038954       0xb0 /GCC/lib/gcc/ppc-amigaos/4.2.4/newlib/lib/libstdc++.a(string-inst.o)
                0x01038954                std::string::compare(unsigned int, unsigned int, char const*, unsigned int) const
 .text._ZNKSs7compareEjjPKc
                0x01038a04       0xe4 /GCC/lib/gcc/ppc-amigaos/4.2.4/newlib/lib/libstdc++.a(string-inst.o)
                0x01038a04                std::string::compare(unsigned int, unsigned int, char const*) const
 .text._ZNKSs7compareEjjRKSsjj
                0x01038ae8       0xe0 /GCC/lib/gcc/ppc-amigaos/4.2.4/newlib/lib/libstdc++.a(string-inst.o)
                0x01038ae8                std::string::compare(unsigned int, unsigned int, std::string const&, unsigned int, unsigned int) const
 .text._ZNKSs7compareEjjRKSs
                0x01038bc8       0xbc /GCC/lib/gcc/ppc-amigaos/4.2.4/newlib/lib/libstdc++.a(string-inst.o)
                0x01038bc8                std::string::compare(unsigned int, unsigned int, std::string const&) const
 .text._ZNSsD1Ev
                0x01038c84       0x54 /GCC/lib/gcc/ppc-amigaos/4.2.4/newlib/lib/libstdc++.a(string-inst.o)
                0x01038c84                std::basic_string<char, std::char_traits<char>, std::allocator<char> >::~basic_string()
 .text._ZNSsD2Ev
                0x01038cd8       0x54 /GCC/lib/gcc/ppc-amigaos/4.2.4/newlib/lib/libstdc++.a(string-inst.o)
                0x01038cd8                std::basic_string<char, std::char_traits<char>, std::allocator<char> >::~basic_string()
 .text._ZNSs13_S_copy_charsEPcS_S_
                0x01038d2c       0x44 /GCC/lib/gcc/ppc-amigaos/4.2.4/newlib/lib/libstdc++.a(string-inst.o)
                0x01038d2c                std::string::_S_copy_chars(char*, char*, char*)
 .text._ZNSs4_Rep8_M_cloneERKSaIcEj
                0x01038d70       0xcc /GCC/lib/gcc/ppc-amigaos/4.2.4/newlib/lib/libstdc++.a(string-inst.o)
                0x01038d70                std::string::_Rep::_M_clone(std::allocator<char> const&, unsigned int)
 .text._ZNSs4_Rep7_M_grabERKSaIcES2_
                0x01038e3c       0x64 /GCC/lib/gcc/ppc-amigaos/4.2.4/newlib/lib/libstdc++.a(string-inst.o)
                0x01038e3c                std::string::_Rep::_M_grab(std::allocator<char> const&, std::allocator<char> const&)
 .text._ZNSs7reserveEj
                0x01038ea0      0x258 /GCC/lib/gcc/ppc-amigaos/4.2.4/newlib/lib/libstdc++.a(string-inst.o)
                0x01038ea0                std::string::reserve(unsigned int)
 .text._ZNSs9push_backEc
                0x010390f8       0x94 /GCC/lib/gcc/ppc-amigaos/4.2.4/newlib/lib/libstdc++.a(string-inst.o)
                0x010390f8                std::string::push_back(char)
 .text._ZNSs6appendEjc
                0x0103918c       0xe4 /GCC/lib/gcc/ppc-amigaos/4.2.4/newlib/lib/libstdc++.a(string-inst.o)
                0x0103918c                std::string::append(unsigned int, char)
 .text._ZNSspLEc
                0x01039270       0x98 /GCC/lib/gcc/ppc-amigaos/4.2.4/newlib/lib/libstdc++.a(string-inst.o)
                0x01039270                std::string::operator+=(char)
 .text._ZNKSs4copyEPcjj
                0x01039308       0x9c /GCC/lib/gcc/ppc-amigaos/4.2.4/newlib/lib/libstdc++.a(string-inst.o)
                0x01039308                std::string::copy(char*, unsigned int, unsigned int) const
 .text._ZNSs6appendEPKcj
                0x010393a4      0x124 /GCC/lib/gcc/ppc-amigaos/4.2.4/newlib/lib/libstdc++.a(string-inst.o)
                0x010393a4                std::string::append(char const*, unsigned int)
 .text._ZNSs6appendEPKc
                0x010394c8       0x4c /GCC/lib/gcc/ppc-amigaos/4.2.4/newlib/lib/libstdc++.a(string-inst.o)
                0x010394c8                std::string::append(char const*)
 .text._ZNSspLEPKc
                0x01039514       0x4c /GCC/lib/gcc/ppc-amigaos/4.2.4/newlib/lib/libstdc++.a(string-inst.o)
                0x01039514                std::string::operator+=(char const*)
 .text._ZNSs6appendERKSsjj
                0x01039560      0x108 /GCC/lib/gcc/ppc-amigaos/4.2.4/newlib/lib/libstdc++.a(string-inst.o)
                0x01039560                std::string::append(std::string const&, unsigned int, unsigned int)
 .text._ZNSs6appendERKSs
                0x01039668       0xd0 /GCC/lib/gcc/ppc-amigaos/4.2.4/newlib/lib/libstdc++.a(string-inst.o)
                0x01039668                std::string::append(std::string const&)
 .text._ZNSspLERKSs
                0x01039738       0x20 /GCC/lib/gcc/ppc-amigaos/4.2.4/newlib/lib/libstdc++.a(string-inst.o)
                0x01039738                std::string::operator+=(std::string const&)
 .text._ZNSs9_M_mutateEjjj
                0x01039758      0x38c /GCC/lib/gcc/ppc-amigaos/4.2.4/newlib/lib/libstdc++.a(string-inst.o)
                0x01039758                std::string::_M_mutate(unsigned int, unsigned int, unsigned int)
 .text._ZNSs15_M_replace_safeEjjPKcj
                0x01039ae4       0xa8 /GCC/lib/gcc/ppc-amigaos/4.2.4/newlib/lib/libstdc++.a(string-inst.o)
                0x01039ae4                std::string::_M_replace_safe(unsigned int, unsigned int, char const*, unsigned int)
 .text._ZNSs6assignEPKcj
                0x01039b8c      0x124 /GCC/lib/gcc/ppc-amigaos/4.2.4/newlib/lib/libstdc++.a(string-inst.o)
                0x01039b8c                std::string::assign(char const*, unsigned int)
 .text._ZNSs6assignEPKc
                0x01039cb0       0x4c /GCC/lib/gcc/ppc-amigaos/4.2.4/newlib/lib/libstdc++.a(string-inst.o)
                0x01039cb0                std::string::assign(char const*)
 .text._ZNSs6assignERKSsjj
                0x01039cfc       0x6c /GCC/lib/gcc/ppc-amigaos/4.2.4/newlib/lib/libstdc++.a(string-inst.o)
                0x01039cfc                std::string::assign(std::string const&, unsigned int, unsigned int)
 .text._ZNSsaSEPKc
                0x01039d68       0x4c /GCC/lib/gcc/ppc-amigaos/4.2.4/newlib/lib/libstdc++.a(string-inst.o)
                0x01039d68                std::string::operator=(char const*)
 .text._ZNSs14_M_replace_auxEjjjc
                0x01039db4       0xcc /GCC/lib/gcc/ppc-amigaos/4.2.4/newlib/lib/libstdc++.a(string-inst.o)
                0x01039db4                std::string::_M_replace_aux(unsigned int, unsigned int, unsigned int, char)
 .text._ZNSs7replaceEN9__gnu_cxx17__normal_iteratorIPcSsEES2_jc
                0x01039e80       0x34 /GCC/lib/gcc/ppc-amigaos/4.2.4/newlib/lib/libstdc++.a(string-inst.o)
                0x01039e80                std::string::replace(__gnu_cxx::__normal_iterator<char*, std::string>, __gnu_cxx::__normal_iterator<char*, std::string>, unsigned int, char)
 .text._ZNSs7replaceEjjjc
                0x01039eb4       0x64 /GCC/lib/gcc/ppc-amigaos/4.2.4/newlib/lib/libstdc++.a(string-inst.o)
                0x01039eb4                std::string::replace(unsigned int, unsigned int, unsigned int, char)
 .text._ZNSs6insertEN9__gnu_cxx17__normal_iteratorIPcSsEEc
                0x01039f18       0x60 /GCC/lib/gcc/ppc-amigaos/4.2.4/newlib/lib/libstdc++.a(string-inst.o)
                0x01039f18                std::string::insert(__gnu_cxx::__normal_iterator<char*, std::string>, char)
 .text._ZNSs6insertEjjc
                0x01039f78       0x48 /GCC/lib/gcc/ppc-amigaos/4.2.4/newlib/lib/libstdc++.a(string-inst.o)
                0x01039f78                std::string::insert(unsigned int, unsigned int, char)
 .text._ZNSs6assignEjc
                0x01039fc0       0x34 /GCC/lib/gcc/ppc-amigaos/4.2.4/newlib/lib/libstdc++.a(string-inst.o)
                0x01039fc0                std::string::assign(unsigned int, char)
 .text._ZNSsaSEc
                0x01039ff4       0x44 /GCC/lib/gcc/ppc-amigaos/4.2.4/newlib/lib/libstdc++.a(string-inst.o)
                0x01039ff4                std::string::operator=(char)
 .text._ZNSs6insertEN9__gnu_cxx17__normal_iteratorIPcSsEEjc
                0x0103a038       0x38 /GCC/lib/gcc/ppc-amigaos/4.2.4/newlib/lib/libstdc++.a(string-inst.o)
                0x0103a038                std::string::insert(__gnu_cxx::__normal_iterator<char*, std::string>, unsigned int, char)
 .text._ZNSs5eraseEN9__gnu_cxx17__normal_iteratorIPcSsEES2_
                0x0103a070       0x60 /GCC/lib/gcc/ppc-amigaos/4.2.4/newlib/lib/libstdc++.a(string-inst.o)
                0x0103a070                std::string::erase(__gnu_cxx::__normal_iterator<char*, std::string>, __gnu_cxx::__normal_iterator<char*, std::string>)
 .text._ZNSs5eraseEN9__gnu_cxx17__normal_iteratorIPcSsEE
                0x0103a0d0       0x5c /GCC/lib/gcc/ppc-amigaos/4.2.4/newlib/lib/libstdc++.a(string-inst.o)
                0x0103a0d0                std::string::erase(__gnu_cxx::__normal_iterator<char*, std::string>)
 .text._ZNSs5eraseEjj
                0x0103a12c       0x84 /GCC/lib/gcc/ppc-amigaos/4.2.4/newlib/lib/libstdc++.a(string-inst.o)
                0x0103a12c                std::string::erase(unsigned int, unsigned int)
 .text._ZNSs6insertEjPKcj
                0x0103a1b0      0x19c /GCC/lib/gcc/ppc-amigaos/4.2.4/newlib/lib/libstdc++.a(string-inst.o)
                0x0103a1b0                std::string::insert(unsigned int, char const*, unsigned int)
 .text._ZNSs6insertEjPKc
                0x0103a34c       0x5c /GCC/lib/gcc/ppc-amigaos/4.2.4/newlib/lib/libstdc++.a(string-inst.o)
                0x0103a34c                std::string::insert(unsigned int, char const*)
 .text._ZNSs6insertEjRKSsjj
                0x0103a3a8       0x6c /GCC/lib/gcc/ppc-amigaos/4.2.4/newlib/lib/libstdc++.a(string-inst.o)
                0x0103a3a8                std::string::insert(unsigned int, std::string const&, unsigned int, unsigned int)
 .text._ZNSs6insertEjRKSs
                0x0103a414       0x28 /GCC/lib/gcc/ppc-amigaos/4.2.4/newlib/lib/libstdc++.a(string-inst.o)
                0x0103a414                std::string::insert(unsigned int, std::string const&)
 .text._ZNSs5clearEv
                0x0103a43c       0x30 /GCC/lib/gcc/ppc-amigaos/4.2.4/newlib/lib/libstdc++.a(string-inst.o)
                0x0103a43c                std::string::clear()
 .text._ZNSs12_M_leak_hardEv
                0x0103a46c       0x6c /GCC/lib/gcc/ppc-amigaos/4.2.4/newlib/lib/libstdc++.a(string-inst.o)
                0x0103a46c                std::string::_M_leak_hard()
 .text._ZNSs7_M_leakEv
                0x0103a4d8       0x30 /GCC/lib/gcc/ppc-amigaos/4.2.4/newlib/lib/libstdc++.a(string-inst.o)
                0x0103a4d8                std::string::_M_leak()
 .text._ZNSs2atEj
                0x0103a508       0x6c /GCC/lib/gcc/ppc-amigaos/4.2.4/newlib/lib/libstdc++.a(string-inst.o)
                0x0103a508                std::string::at(unsigned int)
 .text._ZNSsixEj
                0x0103a574       0x50 /GCC/lib/gcc/ppc-amigaos/4.2.4/newlib/lib/libstdc++.a(string-inst.o)
                0x0103a574                std::string::operator[](unsigned int)
 .text._ZNSs3endEv
                0x0103a5c4       0x50 /GCC/lib/gcc/ppc-amigaos/4.2.4/newlib/lib/libstdc++.a(string-inst.o)
                0x0103a5c4                std::string::end()
 .text._ZNSs5beginEv
                0x0103a614       0x44 /GCC/lib/gcc/ppc-amigaos/4.2.4/newlib/lib/libstdc++.a(string-inst.o)
                0x0103a614                std::string::begin()
 .text._ZNSs4rendEv
                0x0103a658       0x58 /GCC/lib/gcc/ppc-amigaos/4.2.4/newlib/lib/libstdc++.a(string-inst.o)
                0x0103a658                std::string::rend()
 .text._ZNSs6rbeginEv
                0x0103a6b0       0x68 /GCC/lib/gcc/ppc-amigaos/4.2.4/newlib/lib/libstdc++.a(string-inst.o)
                0x0103a6b0                std::string::rbegin()
 .text._ZNSs6resizeEjc
                0x0103a718       0x80 /GCC/lib/gcc/ppc-amigaos/4.2.4/newlib/lib/libstdc++.a(string-inst.o)
                0x0103a718                std::string::resize(unsigned int, char)
 .text._ZNSs6resizeEj
                0x0103a798       0x24 /GCC/lib/gcc/ppc-amigaos/4.2.4/newlib/lib/libstdc++.a(string-inst.o)
                0x0103a798                std::string::resize(unsigned int)
 .text._ZNSs13_S_copy_charsEPcPKcS1_
                0x0103a7bc       0x44 /GCC/lib/gcc/ppc-amigaos/4.2.4/newlib/lib/libstdc++.a(string-inst.o)
                0x0103a7bc                std::string::_S_copy_chars(char*, char const*, char const*)
 .text._ZNSs13_S_copy_charsEPcN9__gnu_cxx17__normal_iteratorIPKcSsEES4_
                0x0103a800       0x4c /GCC/lib/gcc/ppc-amigaos/4.2.4/newlib/lib/libstdc++.a(string-inst.o)
                0x0103a800                std::string::_S_copy_chars(char*, __gnu_cxx::__normal_iterator<char const*, std::string>, __gnu_cxx::__normal_iterator<char const*, std::string>)
 .text._ZNSs13_S_copy_charsEPcN9__gnu_cxx17__normal_iteratorIS_SsEES2_
                0x0103a84c       0x4c /GCC/lib/gcc/ppc-amigaos/4.2.4/newlib/lib/libstdc++.a(string-inst.o)
                0x0103a84c                std::string::_S_copy_chars(char*, __gnu_cxx::__normal_iterator<char*, std::string>, __gnu_cxx::__normal_iterator<char*, std::string>)
 .text._ZNSs12_S_constructIPKcEEPcT_S3_RKSaIcESt20forward_iterator_tag
                0x0103a898       0xdc /GCC/lib/gcc/ppc-amigaos/4.2.4/newlib/lib/libstdc++.a(string-inst.o)
                0x0103a898                char* std::string::_S_construct<char const*>(char const*, char const*, std::allocator<char> const&, std::forward_iterator_tag)
 .text._ZNSsC2EPKcRKSaIcE
                0x0103a974       0x98 /GCC/lib/gcc/ppc-amigaos/4.2.4/newlib/lib/libstdc++.a(string-inst.o)
                0x0103a974                std::basic_string<char, std::char_traits<char>, std::allocator<char> >::basic_string(char const*, std::allocator<char> const&)
 .text._ZNSsC1IPKcEET_S2_RKSaIcE
                0x0103aa0c       0x40 /GCC/lib/gcc/ppc-amigaos/4.2.4/newlib/lib/libstdc++.a(string-inst.o)
                0x0103aa0c                std::basic_string<char, std::char_traits<char>, std::allocator<char> >::basic_string<char const*>(char const*, char const*, std::allocator<char> const&)
 .text._ZNSsC2IPKcEET_S2_RKSaIcE
                0x0103aa4c       0x40 /GCC/lib/gcc/ppc-amigaos/4.2.4/newlib/lib/libstdc++.a(string-inst.o)
                0x0103aa4c                std::basic_string<char, std::char_traits<char>, std::allocator<char> >::basic_string<char const*>(char const*, char const*, std::allocator<char> const&)
 .text._ZNSsC1EPKcRKSaIcE
                0x0103aa8c       0x98 /GCC/lib/gcc/ppc-amigaos/4.2.4/newlib/lib/libstdc++.a(string-inst.o)
                0x0103aa8c                std::basic_string<char, std::char_traits<char>, std::allocator<char> >::basic_string(char const*, std::allocator<char> const&)
 .text._ZNSsC1EPKcjRKSaIcE
                0x0103ab24       0x40 /GCC/lib/gcc/ppc-amigaos/4.2.4/newlib/lib/libstdc++.a(string-inst.o)
                0x0103ab24                std::basic_string<char, std::char_traits<char>, std::allocator<char> >::basic_string(char const*, unsigned int, std::allocator<char> const&)
 .text._ZNSsC2EPKcjRKSaIcE
                0x0103ab64       0x40 /GCC/lib/gcc/ppc-amigaos/4.2.4/newlib/lib/libstdc++.a(string-inst.o)
                0x0103ab64                std::basic_string<char, std::char_traits<char>, std::allocator<char> >::basic_string(char const*, unsigned int, std::allocator<char> const&)
 .text._ZNSs12_S_constructIPcEES0_T_S1_RKSaIcESt20forward_iterator_tag
                0x0103aba4       0xdc /GCC/lib/gcc/ppc-amigaos/4.2.4/newlib/lib/libstdc++.a(string-inst.o)
                0x0103aba4                char* std::string::_S_construct<char*>(char*, char*, std::allocator<char> const&, std::forward_iterator_tag)
 .text._ZNSsC2ERKSsjj
                0x0103ac80      0x230 /GCC/lib/gcc/ppc-amigaos/4.2.4/newlib/lib/libstdc++.a(string-inst.o)
                0x0103ac80                std::basic_string<char, std::char_traits<char>, std::allocator<char> >::basic_string(std::string const&, unsigned int, unsigned int)
 .text._ZNSsC1IPcEET_S1_RKSaIcE
                0x0103aeb0       0x40 /GCC/lib/gcc/ppc-amigaos/4.2.4/newlib/lib/libstdc++.a(string-inst.o)
                0x0103aeb0                std::basic_string<char, std::char_traits<char>, std::allocator<char> >::basic_string<char*>(char*, char*, std::allocator<char> const&)
 .text._ZNSsC1ERKSsjj
                0x0103aef0      0x230 /GCC/lib/gcc/ppc-amigaos/4.2.4/newlib/lib/libstdc++.a(string-inst.o)
                0x0103aef0                std::basic_string<char, std::char_traits<char>, std::allocator<char> >::basic_string(std::string const&, unsigned int, unsigned int)
 .text._ZNKSs6substrEjj
                0x0103b120       0x4c /GCC/lib/gcc/ppc-amigaos/4.2.4/newlib/lib/libstdc++.a(string-inst.o)
                0x0103b120                std::string::substr(unsigned int, unsigned int) const
 .text._ZNSsC1ERKSsjjRKSaIcE
                0x0103b16c       0x9c /GCC/lib/gcc/ppc-amigaos/4.2.4/newlib/lib/libstdc++.a(string-inst.o)
                0x0103b16c                std::basic_string<char, std::char_traits<char>, std::allocator<char> >::basic_string(std::string const&, unsigned int, unsigned int, std::allocator<char> const&)
 .text._ZNSsC2ERKSsjjRKSaIcE
                0x0103b208       0x9c /GCC/lib/gcc/ppc-amigaos/4.2.4/newlib/lib/libstdc++.a(string-inst.o)
                0x0103b208                std::basic_string<char, std::char_traits<char>, std::allocator<char> >::basic_string(std::string const&, unsigned int, unsigned int, std::allocator<char> const&)
 .text._ZNSsC2IPcEET_S1_RKSaIcE
                0x0103b2a4       0x40 /GCC/lib/gcc/ppc-amigaos/4.2.4/newlib/lib/libstdc++.a(string-inst.o)
                0x0103b2a4                std::basic_string<char, std::char_traits<char>, std::allocator<char> >::basic_string<char*>(char*, char*, std::allocator<char> const&)
 .text._ZNSs12_S_constructIN9__gnu_cxx17__normal_iteratorIPcSsEEEES2_T_S4_RKSaIcESt20forward_iterator_tag
                0x0103b2e4       0xcc /GCC/lib/gcc/ppc-amigaos/4.2.4/newlib/lib/libstdc++.a(string-inst.o)
                0x0103b2e4                char* std::string::_S_construct<__gnu_cxx::__normal_iterator<char*, std::string> >(__gnu_cxx::__normal_iterator<char*, std::string>, __gnu_cxx::__normal_iterator<char*, std::string>, std::allocator<char> const&, std::forward_iterator_tag)
 .text._ZNSsC1IN9__gnu_cxx17__normal_iteratorIPcSsEEEET_S4_RKSaIcE
                0x0103b3b0       0x50 /GCC/lib/gcc/ppc-amigaos/4.2.4/newlib/lib/libstdc++.a(string-inst.o)
                0x0103b3b0                std::basic_string<char, std::char_traits<char>, std::allocator<char> >::basic_string<__gnu_cxx::__normal_iterator<char*, std::string> >(__gnu_cxx::__normal_iterator<char*, std::string>, __gnu_cxx::__normal_iterator<char*, std::string>, std::allocator<char> const&)
 .text._ZNSsC2IN9__gnu_cxx17__normal_iteratorIPcSsEEEET_S4_RKSaIcE
                0x0103b400       0x50 /GCC/lib/gcc/ppc-amigaos/4.2.4/newlib/lib/libstdc++.a(string-inst.o)
                0x0103b400                std::basic_string<char, std::char_traits<char>, std::allocator<char> >::basic_string<__gnu_cxx::__normal_iterator<char*, std::string> >(__gnu_cxx::__normal_iterator<char*, std::string>, __gnu_cxx::__normal_iterator<char*, std::string>, std::allocator<char> const&)
 .text._ZNSs6assignERKSs
                0x0103b450      0x270 /GCC/lib/gcc/ppc-amigaos/4.2.4/newlib/lib/libstdc++.a(string-inst.o)
                0x0103b450                std::string::assign(std::string const&)
 .text._ZNSsaSERKSs
                0x0103b6c0       0x20 /GCC/lib/gcc/ppc-amigaos/4.2.4/newlib/lib/libstdc++.a(string-inst.o)
                0x0103b6c0                std::string::operator=(std::string const&)
 .text._ZNSsC1ERKSs
                0x0103b6e0      0x20c /GCC/lib/gcc/ppc-amigaos/4.2.4/newlib/lib/libstdc++.a(string-inst.o)
                0x0103b6e0                std::basic_string<char, std::char_traits<char>, std::allocator<char> >::basic_string(std::string const&)
 .text._ZNSsC2ERKSs
                0x0103b8ec      0x20c /GCC/lib/gcc/ppc-amigaos/4.2.4/newlib/lib/libstdc++.a(string-inst.o)
                0x0103b8ec                std::basic_string<char, std::char_traits<char>, std::allocator<char> >::basic_string(std::string const&)
 .text._ZStplIcSt11char_traitsIcESaIcEESbIT_T0_T1_ERKS6_S8_
                0x0103baf8      0x230 /GCC/lib/gcc/ppc-amigaos/4.2.4/newlib/lib/libstdc++.a(string-inst.o)
                0x0103baf8                std::basic_string<char, std::char_traits<char>, std::allocator<char> > std::operator+<char, std::char_traits<char>, std::allocator<char> >(std::basic_string<char, std::char_traits<char>, std::allocator<char> > const&, std::basic_string<char, std::char_traits<char>, std::allocator<char> > const&)
 .text._ZNSs7replaceEjjPKcj
                0x0103bd28      0x410 /GCC/lib/gcc/ppc-amigaos/4.2.4/newlib/lib/libstdc++.a(string-inst.o)
                0x0103bd28                std::string::replace(unsigned int, unsigned int, char const*, unsigned int)
 .text._ZNSs7replaceEN9__gnu_cxx17__normal_iteratorIPcSsEES2_NS0_IPKcSsEES5_
                0x0103c138       0x40 /GCC/lib/gcc/ppc-amigaos/4.2.4/newlib/lib/libstdc++.a(string-inst.o)
                0x0103c138                std::string::replace(__gnu_cxx::__normal_iterator<char*, std::string>, __gnu_cxx::__normal_iterator<char*, std::string>, __gnu_cxx::__normal_iterator<char const*, std::string>, __gnu_cxx::__normal_iterator<char const*, std::string>)
 .text._ZNSs7replaceEN9__gnu_cxx17__normal_iteratorIPcSsEES2_S2_S2_
                0x0103c178       0x40 /GCC/lib/gcc/ppc-amigaos/4.2.4/newlib/lib/libstdc++.a(string-inst.o)
                0x0103c178                std::string::replace(__gnu_cxx::__normal_iterator<char*, std::string>, __gnu_cxx::__normal_iterator<char*, std::string>, __gnu_cxx::__normal_iterator<char*, std::string>, __gnu_cxx::__normal_iterator<char*, std::string>)
 .text._ZNSs7replaceEN9__gnu_cxx17__normal_iteratorIPcSsEES2_PKcS4_
                0x0103c1b8       0x38 /GCC/lib/gcc/ppc-amigaos/4.2.4/newlib/lib/libstdc++.a(string-inst.o)
                0x0103c1b8                std::string::replace(__gnu_cxx::__normal_iterator<char*, std::string>, __gnu_cxx::__normal_iterator<char*, std::string>, char const*, char const*)
 .text._ZNSs7replaceEN9__gnu_cxx17__normal_iteratorIPcSsEES2_S1_S1_
                0x0103c1f0       0x38 /GCC/lib/gcc/ppc-amigaos/4.2.4/newlib/lib/libstdc++.a(string-inst.o)
                0x0103c1f0                std::string::replace(__gnu_cxx::__normal_iterator<char*, std::string>, __gnu_cxx::__normal_iterator<char*, std::string>, char*, char*)
 .text._ZNSs7replaceEN9__gnu_cxx17__normal_iteratorIPcSsEES2_PKcj
                0x0103c228       0x34 /GCC/lib/gcc/ppc-amigaos/4.2.4/newlib/lib/libstdc++.a(string-inst.o)
                0x0103c228                std::string::replace(__gnu_cxx::__normal_iterator<char*, std::string>, __gnu_cxx::__normal_iterator<char*, std::string>, char const*, unsigned int)
 .text._ZNSs7replaceEjjPKc
                0x0103c25c       0x6c /GCC/lib/gcc/ppc-amigaos/4.2.4/newlib/lib/libstdc++.a(string-inst.o)
                0x0103c25c                std::string::replace(unsigned int, unsigned int, char const*)
 .text._ZNSs7replaceEjjRKSsjj
                0x0103c2c8       0x6c /GCC/lib/gcc/ppc-amigaos/4.2.4/newlib/lib/libstdc++.a(string-inst.o)
                0x0103c2c8                std::string::replace(unsigned int, unsigned int, std::string const&, unsigned int, unsigned int)
 .text._ZNSs7replaceEjjRKSs
                0x0103c334       0x28 /GCC/lib/gcc/ppc-amigaos/4.2.4/newlib/lib/libstdc++.a(string-inst.o)
                0x0103c334                std::string::replace(unsigned int, unsigned int, std::string const&)
 .text._ZNSs7replaceEN9__gnu_cxx17__normal_iteratorIPcSsEES2_PKc
                0x0103c35c       0x70 /GCC/lib/gcc/ppc-amigaos/4.2.4/newlib/lib/libstdc++.a(string-inst.o)
                0x0103c35c                std::string::replace(__gnu_cxx::__normal_iterator<char*, std::string>, __gnu_cxx::__normal_iterator<char*, std::string>, char const*)
 .text._ZNSs7replaceEN9__gnu_cxx17__normal_iteratorIPcSsEES2_RKSs
                0x0103c3cc       0x3c /GCC/lib/gcc/ppc-amigaos/4.2.4/newlib/lib/libstdc++.a(string-inst.o)
                0x0103c3cc                std::string::replace(__gnu_cxx::__normal_iterator<char*, std::string>, __gnu_cxx::__normal_iterator<char*, std::string>, std::string const&)
 .text._ZStplIcSt11char_traitsIcESaIcEESbIT_T0_T1_ES3_RKS6_
                0x0103c408      0x254 /GCC/lib/gcc/ppc-amigaos/4.2.4/newlib/lib/libstdc++.a(string-inst.o)
                0x0103c408                std::basic_string<char, std::char_traits<char>, std::allocator<char> > std::operator+<char, std::char_traits<char>, std::allocator<char> >(char, std::basic_string<char, std::char_traits<char>, std::allocator<char> > const&)
 .text._ZStplIcSt11char_traitsIcESaIcEESbIT_T0_T1_EPKS3_RKS6_
                0x0103c65c      0x264 /GCC/lib/gcc/ppc-amigaos/4.2.4/newlib/lib/libstdc++.a(string-inst.o)
                0x0103c65c                std::basic_string<char, std::char_traits<char>, std::allocator<char> > std::operator+<char, std::char_traits<char>, std::allocator<char> >(char const*, std::basic_string<char, std::char_traits<char>, std::allocator<char> > const&)
 .text._ZNSs4swapERSs
                0x0103c8c0       0x44 /GCC/lib/gcc/ppc-amigaos/4.2.4/newlib/lib/libstdc++.a(string-inst.o)
                0x0103c8c0                std::string::swap(std::string&)
 .text          0x0103c904        0x0 /GCC/lib/gcc/ppc-amigaos/4.2.4/newlib/lib/libstdc++.a(del_op.o)
 .text._ZdlPv   0x0103c904       0x28 /GCC/lib/gcc/ppc-amigaos/4.2.4/newlib/lib/libstdc++.a(del_op.o)
                0x0103c904                operator delete(void*)
 .text          0x0103c92c        0x0 /GCC/lib/gcc/ppc-amigaos/4.2.4/newlib/lib/libstdc++.a(del_opv.o)
 .text._ZdaPv   0x0103c92c       0x20 /GCC/lib/gcc/ppc-amigaos/4.2.4/newlib/lib/libstdc++.a(del_opv.o)
                0x0103c92c                operator delete[](void*)
 .text          0x0103c94c        0x0 /GCC/lib/gcc/ppc-amigaos/4.2.4/newlib/lib/libstdc++.a(eh_alloc.o)
 .text._Z41__static_initialization_and_destruction_0ii
                0x0103c94c        0xc /GCC/lib/gcc/ppc-amigaos/4.2.4/newlib/lib/libstdc++.a(eh_alloc.o)
 .text._GLOBAL__I__ZN79_GLOBAL__N_.._.._.._.._gcc_libstdc___v3_libsupc___eh_alloc.cc_00000000_0645BF6015emergency_mutexE
                0x0103c958       0x18 /GCC/lib/gcc/ppc-amigaos/4.2.4/newlib/lib/libstdc++.a(eh_alloc.o)
 .text.__cxa_free_exception
                0x0103c970       0x8c /GCC/lib/gcc/ppc-amigaos/4.2.4/newlib/lib/libstdc++.a(eh_alloc.o)
                0x0103c974                __cxa_free_exception
 .text.__cxa_allocate_exception
                0x0103c9fc      0x288 /GCC/lib/gcc/ppc-amigaos/4.2.4/newlib/lib/libstdc++.a(eh_alloc.o)
                0x0103ca00                __cxa_allocate_exception
 .text          0x0103cc84        0x0 /GCC/lib/gcc/ppc-amigaos/4.2.4/newlib/lib/libstdc++.a(eh_catch.o)
 .text.__cxa_get_exception_ptr
                0x0103cc84       0x10 /GCC/lib/gcc/ppc-amigaos/4.2.4/newlib/lib/libstdc++.a(eh_catch.o)
                0x0103cc84                __cxa_get_exception_ptr
 .text._ZSt18uncaught_exceptionv
                0x0103cc94       0x2c /GCC/lib/gcc/ppc-amigaos/4.2.4/newlib/lib/libstdc++.a(eh_catch.o)
                0x0103cc94                std::uncaught_exception()
 .text.__cxa_end_catch
                0x0103ccc0       0xd4 /GCC/lib/gcc/ppc-amigaos/4.2.4/newlib/lib/libstdc++.a(eh_catch.o)
                0x0103ccc0                __cxa_end_catch
 .text.__cxa_begin_catch
                0x0103cd94      0x26c /GCC/lib/gcc/ppc-amigaos/4.2.4/newlib/lib/libstdc++.a(eh_catch.o)
                0x0103cd98                __cxa_begin_catch
 .text          0x0103d000        0x0 /GCC/lib/gcc/ppc-amigaos/4.2.4/newlib/lib/libstdc++.a(eh_exception.o)
 .text._ZNKSt9exception4whatEv
                0x0103d000       0x3c /GCC/lib/gcc/ppc-amigaos/4.2.4/newlib/lib/libstdc++.a(eh_exception.o)
                0x0103d004                std::exception::what() const
 .text._ZNKSt13bad_exception4whatEv
                0x0103d03c       0x3c /GCC/lib/gcc/ppc-amigaos/4.2.4/newlib/lib/libstdc++.a(eh_exception.o)
                0x0103d040                std::bad_exception::what() const
 .text._ZNSt9exceptionD0Ev
                0x0103d078       0x44 /GCC/lib/gcc/ppc-amigaos/4.2.4/newlib/lib/libstdc++.a(eh_exception.o)
                0x0103d07c                std::exception::~exception()
 .text._ZNSt9exceptionD1Ev
                0x0103d0bc       0x40 /GCC/lib/gcc/ppc-amigaos/4.2.4/newlib/lib/libstdc++.a(eh_exception.o)
                0x0103d0c0                std::exception::~exception()
 .text._ZNSt9exceptionD2Ev
                0x0103d0fc       0x40 /GCC/lib/gcc/ppc-amigaos/4.2.4/newlib/lib/libstdc++.a(eh_exception.o)
                0x0103d100                std::exception::~exception()
 .text._ZNSt13bad_exceptionD0Ev
                0x0103d13c       0x58 /GCC/lib/gcc/ppc-amigaos/4.2.4/newlib/lib/libstdc++.a(eh_exception.o)
                0x0103d140                std::bad_exception::~bad_exception()
 .text._ZNSt13bad_exceptionD1Ev
                0x0103d194       0x44 /GCC/lib/gcc/ppc-amigaos/4.2.4/newlib/lib/libstdc++.a(eh_exception.o)
                0x0103d198                std::bad_exception::~bad_exception()
 .text._ZNSt13bad_exceptionD2Ev
                0x0103d1d8       0x44 /GCC/lib/gcc/ppc-amigaos/4.2.4/newlib/lib/libstdc++.a(eh_exception.o)
                0x0103d1dc                std::bad_exception::~bad_exception()
 .text          0x0103d21c        0x0 /GCC/lib/gcc/ppc-amigaos/4.2.4/newlib/lib/libstdc++.a(eh_globals.o)
 .text.__cxa_get_globals_fast
                0x0103d21c       0x3c /GCC/lib/gcc/ppc-amigaos/4.2.4/newlib/lib/libstdc++.a(eh_globals.o)
                0x0103d220                __cxa_get_globals_fast
 .text.__cxa_get_globals
                0x0103d258       0x3c /GCC/lib/gcc/ppc-amigaos/4.2.4/newlib/lib/libstdc++.a(eh_globals.o)
                0x0103d25c                __cxa_get_globals
 .text          0x0103d294        0x0 /GCC/lib/gcc/ppc-amigaos/4.2.4/newlib/lib/libstdc++.a(eh_personality.o)
 .text._Z12read_uleb128PKhPj
                0x0103d294       0x50 /GCC/lib/gcc/ppc-amigaos/4.2.4/newlib/lib/libstdc++.a(eh_personality.o)
 .text._Z12read_sleb128PKhPi
                0x0103d2e4       0x54 /GCC/lib/gcc/ppc-amigaos/4.2.4/newlib/lib/libstdc++.a(eh_personality.o)
 .text._Z16get_adjusted_ptrPKSt9type_infoS1_PPv
                0x0103d338       0xb0 /GCC/lib/gcc/ppc-amigaos/4.2.4/newlib/lib/libstdc++.a(eh_personality.o)
 .text._Z28read_encoded_value_with_basehjPKhPj
                0x0103d3e8      0x17c /GCC/lib/gcc/ppc-amigaos/4.2.4/newlib/lib/libstdc++.a(eh_personality.o)
 .text._Z21base_of_encoded_valuehP15_Unwind_Context
                0x0103d564       0xb0 /GCC/lib/gcc/ppc-amigaos/4.2.4/newlib/lib/libstdc++.a(eh_personality.o)
 .text._Z17parse_lsda_headerP15_Unwind_ContextPKhP16lsda_header_info
                0x0103d614      0x104 /GCC/lib/gcc/ppc-amigaos/4.2.4/newlib/lib/libstdc++.a(eh_personality.o)
 .text._Z15get_ttype_entryP16lsda_header_infoj
                0x0103d718       0xe0 /GCC/lib/gcc/ppc-amigaos/4.2.4/newlib/lib/libstdc++.a(eh_personality.o)
 .text._Z20check_exception_specP16lsda_header_infoPKSt9type_infoPvi
                0x0103d7f8       0xd8 /GCC/lib/gcc/ppc-amigaos/4.2.4/newlib/lib/libstdc++.a(eh_personality.o)
 .text.__cxa_call_unexpected
                0x0103d8d0      0x234 /GCC/lib/gcc/ppc-amigaos/4.2.4/newlib/lib/libstdc++.a(eh_personality.o)
                0x0103d8d4                __cxa_call_unexpected
 .text.__gxx_personality_sj0
                0x0103db04      0x698 /GCC/lib/gcc/ppc-amigaos/4.2.4/newlib/lib/libstdc++.a(eh_personality.o)
                0x0103db08                __gxx_personality_sj0
 .text          0x0103e19c        0x0 /GCC/lib/gcc/ppc-amigaos/4.2.4/newlib/lib/libstdc++.a(eh_terminate.o)
 .text._ZSt13set_terminatePFvvE
                0x0103e19c       0x48 /GCC/lib/gcc/ppc-amigaos/4.2.4/newlib/lib/libstdc++.a(eh_terminate.o)
                0x0103e1a0                std::set_terminate(void (*)())
 .text._ZSt14set_unexpectedPFvvE
                0x0103e1e4       0x48 /GCC/lib/gcc/ppc-amigaos/4.2.4/newlib/lib/libstdc++.a(eh_terminate.o)
                0x0103e1e8                std::set_unexpected(void (*)())
 .text._ZN10__cxxabiv111__terminateEPFvvE
                0x0103e22c      0x154 /GCC/lib/gcc/ppc-amigaos/4.2.4/newlib/lib/libstdc++.a(eh_terminate.o)
                0x0103e230                __cxxabiv1::__terminate(void (*)())
 .text._ZSt9terminatev
                0x0103e380       0x30 /GCC/lib/gcc/ppc-amigaos/4.2.4/newlib/lib/libstdc++.a(eh_terminate.o)
                0x0103e384                std::terminate()
 .text._ZN10__cxxabiv112__unexpectedEPFvvE
                0x0103e3b0       0x18 /GCC/lib/gcc/ppc-amigaos/4.2.4/newlib/lib/libstdc++.a(eh_terminate.o)
                0x0103e3b0                __cxxabiv1::__unexpected(void (*)())
 .text._ZSt10unexpectedv
                0x0103e3c8       0x30 /GCC/lib/gcc/ppc-amigaos/4.2.4/newlib/lib/libstdc++.a(eh_terminate.o)
                0x0103e3cc                std::unexpected()
 .text          0x0103e3f8        0x0 /GCC/lib/gcc/ppc-amigaos/4.2.4/newlib/lib/libstdc++.a(eh_term_handler.o)
 .text          0x0103e3f8        0x0 /GCC/lib/gcc/ppc-amigaos/4.2.4/newlib/lib/libstdc++.a(eh_throw.o)
 .text.__cxa_rethrow
                0x0103e3f8       0x9c /GCC/lib/gcc/ppc-amigaos/4.2.4/newlib/lib/libstdc++.a(eh_throw.o)
                0x0103e3f8                __cxa_rethrow
 .text.__cxa_throw
                0x0103e494       0x84 /GCC/lib/gcc/ppc-amigaos/4.2.4/newlib/lib/libstdc++.a(eh_throw.o)
                0x0103e498                __cxa_throw
 .text._Z23__gxx_exception_cleanup19_Unwind_Reason_CodeP17_Unwind_Exception
                0x0103e518       0x5c /GCC/lib/gcc/ppc-amigaos/4.2.4/newlib/lib/libstdc++.a(eh_throw.o)
 .text          0x0103e574        0x0 /GCC/lib/gcc/ppc-amigaos/4.2.4/newlib/lib/libstdc++.a(eh_unex_handler.o)
 .text          0x0103e574        0x0 /GCC/lib/gcc/ppc-amigaos/4.2.4/newlib/lib/libstdc++.a(new_handler.o)
 .text._ZSt15set_new_handlerPFvvE
                0x0103e574       0x48 /GCC/lib/gcc/ppc-amigaos/4.2.4/newlib/lib/libstdc++.a(new_handler.o)
                0x0103e578                std::set_new_handler(void (*)())
 .text._ZNKSt9bad_alloc4whatEv
                0x0103e5bc       0x3c /GCC/lib/gcc/ppc-amigaos/4.2.4/newlib/lib/libstdc++.a(new_handler.o)
                0x0103e5c0                std::bad_alloc::what() const
 .text._ZNSt9bad_allocD0Ev
                0x0103e5f8       0x58 /GCC/lib/gcc/ppc-amigaos/4.2.4/newlib/lib/libstdc++.a(new_handler.o)
                0x0103e5fc                std::bad_alloc::~bad_alloc()
 .text._ZNSt9bad_allocD1Ev
                0x0103e650       0x44 /GCC/lib/gcc/ppc-amigaos/4.2.4/newlib/lib/libstdc++.a(new_handler.o)
                0x0103e654                std::bad_alloc::~bad_alloc()
 .text._ZNSt9bad_allocD2Ev
                0x0103e694       0x44 /GCC/lib/gcc/ppc-amigaos/4.2.4/newlib/lib/libstdc++.a(new_handler.o)
                0x0103e698                std::bad_alloc::~bad_alloc()
 .text          0x0103e6d8        0x0 /GCC/lib/gcc/ppc-amigaos/4.2.4/newlib/lib/libstdc++.a(new_op.o)
 .text._Znwj    0x0103e6d8      0x26c /GCC/lib/gcc/ppc-amigaos/4.2.4/newlib/lib/libstdc++.a(new_op.o)
                0x0103e6dc                operator new(unsigned int)
 .text          0x0103e944        0x0 /GCC/lib/gcc/ppc-amigaos/4.2.4/newlib/lib/libstdc++.a(new_opv.o)
 .text._Znaj    0x0103e944      0x1e8 /GCC/lib/gcc/ppc-amigaos/4.2.4/newlib/lib/libstdc++.a(new_opv.o)
                0x0103e948                operator new[](unsigned int)
 .text          0x0103eb2c        0x0 /GCC/lib/gcc/ppc-amigaos/4.2.4/newlib/lib/libstdc++.a(tinfo.o)
 .text._ZNKSt8bad_cast4whatEv
                0x0103eb2c       0x3c /GCC/lib/gcc/ppc-amigaos/4.2.4/newlib/lib/libstdc++.a(tinfo.o)
                0x0103eb30                std::bad_cast::what() const
 .text._ZNKSt10bad_typeid4whatEv
                0x0103eb68       0x3c /GCC/lib/gcc/ppc-amigaos/4.2.4/newlib/lib/libstdc++.a(tinfo.o)
                0x0103eb6c                std::bad_typeid::what() const
 .text._ZNKSt9type_info14__is_pointer_pEv
                0x0103eba4       0x10 /GCC/lib/gcc/ppc-amigaos/4.2.4/newlib/lib/libstdc++.a(tinfo.o)
                0x0103eba4                std::type_info::__is_pointer_p() const
 .text._ZNKSt9type_info15__is_function_pEv
                0x0103ebb4       0x10 /GCC/lib/gcc/ppc-amigaos/4.2.4/newlib/lib/libstdc++.a(tinfo.o)
                0x0103ebb4                std::type_info::__is_function_p() const
 .text._ZNKSt9type_info11__do_upcastEPKN10__cxxabiv117__class_type_infoEPPv
                0x0103ebc4       0x10 /GCC/lib/gcc/ppc-amigaos/4.2.4/newlib/lib/libstdc++.a(tinfo.o)
                0x0103ebc4                std::type_info::__do_upcast(__cxxabiv1::__class_type_info const*, void**) const
 .text._ZNK10__cxxabiv117__class_type_info10__do_catchEPKSt9type_infoPPvj
                0x0103ebd4       0x68 /GCC/lib/gcc/ppc-amigaos/4.2.4/newlib/lib/libstdc++.a(tinfo.o)
                0x0103ebd4                __cxxabiv1::__class_type_info::__do_catch(std::type_info const*, void**, unsigned int) const
 .text._ZNK10__cxxabiv117__class_type_info11__do_upcastEPKS0_PPv
                0x0103ec3c       0x78 /GCC/lib/gcc/ppc-amigaos/4.2.4/newlib/lib/libstdc++.a(tinfo.o)
                0x0103ec3c                __cxxabiv1::__class_type_info::__do_upcast(__cxxabiv1::__class_type_info const*, void**) const
 .text._ZNK10__cxxabiv117__class_type_info20__do_find_public_srcEiPKvPKS0_S2_
                0x0103ecb4       0x28 /GCC/lib/gcc/ppc-amigaos/4.2.4/newlib/lib/libstdc++.a(tinfo.o)
                0x0103ecb4                __cxxabiv1::__class_type_info::__do_find_public_src(int, void const*, __cxxabiv1::__class_type_info const*, void const*) const
 .text._ZNSt9type_infoD0Ev
                0x0103ecdc       0x44 /GCC/lib/gcc/ppc-amigaos/4.2.4/newlib/lib/libstdc++.a(tinfo.o)
                0x0103ece0                std::type_info::~type_info()
 .text._ZNSt9type_infoD1Ev
                0x0103ed20       0x40 /GCC/lib/gcc/ppc-amigaos/4.2.4/newlib/lib/libstdc++.a(tinfo.o)
                0x0103ed24                std::type_info::~type_info()
 .text._ZNSt9type_infoD2Ev
                0x0103ed60       0x40 /GCC/lib/gcc/ppc-amigaos/4.2.4/newlib/lib/libstdc++.a(tinfo.o)
                0x0103ed64                std::type_info::~type_info()
 .text._ZN10__cxxabiv117__class_type_infoD0Ev
                0x0103eda0       0x58 /GCC/lib/gcc/ppc-amigaos/4.2.4/newlib/lib/libstdc++.a(tinfo.o)
                0x0103eda4                __cxxabiv1::__class_type_info::~__class_type_info()
 .text._ZN10__cxxabiv117__class_type_infoD1Ev
                0x0103edf8       0x44 /GCC/lib/gcc/ppc-amigaos/4.2.4/newlib/lib/libstdc++.a(tinfo.o)
                0x0103edfc                __cxxabiv1::__class_type_info::~__class_type_info()
 .text._ZN10__cxxabiv117__class_type_infoD2Ev
                0x0103ee3c       0x44 /GCC/lib/gcc/ppc-amigaos/4.2.4/newlib/lib/libstdc++.a(tinfo.o)
                0x0103ee40                __cxxabiv1::__class_type_info::~__class_type_info()
 .text._ZN10__cxxabiv121__vmi_class_type_infoD0Ev
                0x0103ee80       0x58 /GCC/lib/gcc/ppc-amigaos/4.2.4/newlib/lib/libstdc++.a(tinfo.o)
                0x0103ee84                __cxxabiv1::__vmi_class_type_info::~__vmi_class_type_info()
 .text._ZN10__cxxabiv121__vmi_class_type_infoD1Ev
                0x0103eed8       0x44 /GCC/lib/gcc/ppc-amigaos/4.2.4/newlib/lib/libstdc++.a(tinfo.o)
                0x0103eedc                __cxxabiv1::__vmi_class_type_info::~__vmi_class_type_info()
 .text._ZN10__cxxabiv121__vmi_class_type_infoD2Ev
                0x0103ef1c       0x44 /GCC/lib/gcc/ppc-amigaos/4.2.4/newlib/lib/libstdc++.a(tinfo.o)
                0x0103ef20                __cxxabiv1::__vmi_class_type_info::~__vmi_class_type_info()
 .text._ZN10__cxxabiv120__si_class_type_infoD0Ev
                0x0103ef60       0x58 /GCC/lib/gcc/ppc-amigaos/4.2.4/newlib/lib/libstdc++.a(tinfo.o)
                0x0103ef64                __cxxabiv1::__si_class_type_info::~__si_class_type_info()
 .text._ZN10__cxxabiv120__si_class_type_infoD1Ev
                0x0103efb8       0x44 /GCC/lib/gcc/ppc-amigaos/4.2.4/newlib/lib/libstdc++.a(tinfo.o)
                0x0103efbc                __cxxabiv1::__si_class_type_info::~__si_class_type_info()
 .text._ZN10__cxxabiv120__si_class_type_infoD2Ev
                0x0103effc       0x44 /GCC/lib/gcc/ppc-amigaos/4.2.4/newlib/lib/libstdc++.a(tinfo.o)
                0x0103f000                __cxxabiv1::__si_class_type_info::~__si_class_type_info()
 .text._ZNSt10bad_typeidD0Ev
                0x0103f040       0x58 /GCC/lib/gcc/ppc-amigaos/4.2.4/newlib/lib/libstdc++.a(tinfo.o)
                0x0103f044                std::bad_typeid::~bad_typeid()
 .text._ZNSt10bad_typeidD1Ev
                0x0103f098       0x44 /GCC/lib/gcc/ppc-amigaos/4.2.4/newlib/lib/libstdc++.a(tinfo.o)
                0x0103f09c                std::bad_typeid::~bad_typeid()
 .text._ZNSt10bad_typeidD2Ev
                0x0103f0dc       0x44 /GCC/lib/gcc/ppc-amigaos/4.2.4/newlib/lib/libstdc++.a(tinfo.o)
                0x0103f0e0                std::bad_typeid::~bad_typeid()
 .text._ZNSt8bad_castD0Ev
                0x0103f120       0x58 /GCC/lib/gcc/ppc-amigaos/4.2.4/newlib/lib/libstdc++.a(tinfo.o)
                0x0103f124                std::bad_cast::~bad_cast()
 .text._ZNSt8bad_castD1Ev
                0x0103f178       0x44 /GCC/lib/gcc/ppc-amigaos/4.2.4/newlib/lib/libstdc++.a(tinfo.o)
                0x0103f17c                std::bad_cast::~bad_cast()
 .text._ZNSt8bad_castD2Ev
                0x0103f1bc       0x44 /GCC/lib/gcc/ppc-amigaos/4.2.4/newlib/lib/libstdc++.a(tinfo.o)
                0x0103f1c0                std::bad_cast::~bad_cast()
 .text._ZNKSt9type_info10__do_catchEPKS_PPvj
                0x0103f200       0x20 /GCC/lib/gcc/ppc-amigaos/4.2.4/newlib/lib/libstdc++.a(tinfo.o)
                0x0103f200                std::type_info::__do_catch(std::type_info const*, void**, unsigned int) const
 .text._ZNK10__cxxabiv117__class_type_info11__do_upcastEPKS0_PKvRNS0_15__upcast_resultE
                0x0103f220       0x38 /GCC/lib/gcc/ppc-amigaos/4.2.4/newlib/lib/libstdc++.a(tinfo.o)
                0x0103f220                __cxxabiv1::__class_type_info::__do_upcast(__cxxabiv1::__class_type_info const*, void const*, __cxxabiv1::__class_type_info::__upcast_result&) const
 .text._ZNK10__cxxabiv120__si_class_type_info11__do_upcastEPKNS_17__class_type_infoEPKvRNS1_15__upcast_resultE
                0x0103f258       0x84 /GCC/lib/gcc/ppc-amigaos/4.2.4/newlib/lib/libstdc++.a(tinfo.o)
                0x0103f258                __cxxabiv1::__si_class_type_info::__do_upcast(__cxxabiv1::__class_type_info const*, void const*, __cxxabiv1::__class_type_info::__upcast_result&) const
 .text._ZNK10__cxxabiv120__si_class_type_info12__do_dyncastEiNS_17__class_type_info10__sub_kindEPKS1_PKvS4_S6_RNS1_16__dyncast_resultE
                0x0103f2dc       0xc8 /GCC/lib/gcc/ppc-amigaos/4.2.4/newlib/lib/libstdc++.a(tinfo.o)
                0x0103f2dc                __cxxabiv1::__si_class_type_info::__do_dyncast(int, __cxxabiv1::__class_type_info::__sub_kind, __cxxabiv1::__class_type_info const*, void const*, __cxxabiv1::__class_type_info const*, void const*, __cxxabiv1::__class_type_info::__dyncast_result&) const
 .text._ZNK10__cxxabiv117__class_type_info12__do_dyncastEiNS0_10__sub_kindEPKS0_PKvS3_S5_RNS0_16__dyncast_resultE
                0x0103f3a4       0x50 /GCC/lib/gcc/ppc-amigaos/4.2.4/newlib/lib/libstdc++.a(tinfo.o)
                0x0103f3a4                __cxxabiv1::__class_type_info::__do_dyncast(int, __cxxabiv1::__class_type_info::__sub_kind, __cxxabiv1::__class_type_info const*, void const*, __cxxabiv1::__class_type_info const*, void const*, __cxxabiv1::__class_type_info::__dyncast_result&) const
 .text._ZNK10__cxxabiv120__si_class_type_info20__do_find_public_srcEiPKvPKNS_17__class_type_infoES2_
                0x0103f3f4       0x50 /GCC/lib/gcc/ppc-amigaos/4.2.4/newlib/lib/libstdc++.a(tinfo.o)
                0x0103f3f4                __cxxabiv1::__si_class_type_info::__do_find_public_src(int, void const*, __cxxabiv1::__class_type_info const*, void const*) const
 .text._ZNK10__cxxabiv121__vmi_class_type_info20__do_find_public_srcEiPKvPKNS_17__class_type_infoES2_
                0x0103f444      0x160 /GCC/lib/gcc/ppc-amigaos/4.2.4/newlib/lib/libstdc++.a(tinfo.o)
                0x0103f444                __cxxabiv1::__vmi_class_type_info::__do_find_public_src(int, void const*, __cxxabiv1::__class_type_info const*, void const*) const
 .text._ZNK10__cxxabiv121__vmi_class_type_info11__do_upcastEPKNS_17__class_type_infoEPKvRNS1_15__upcast_resultE
                0x0103f5a4      0x288 /GCC/lib/gcc/ppc-amigaos/4.2.4/newlib/lib/libstdc++.a(tinfo.o)
                0x0103f5a4                __cxxabiv1::__vmi_class_type_info::__do_upcast(__cxxabiv1::__class_type_info const*, void const*, __cxxabiv1::__class_type_info::__upcast_result&) const
 .text._ZNK10__cxxabiv121__vmi_class_type_info12__do_dyncastEiNS_17__class_type_info10__sub_kindEPKS1_PKvS4_S6_RNS1_16__dyncast_resultE
                0x0103f82c      0x544 /GCC/lib/gcc/ppc-amigaos/4.2.4/newlib/lib/libstdc++.a(tinfo.o)
                0x0103f82c                __cxxabiv1::__vmi_class_type_info::__do_dyncast(int, __cxxabiv1::__class_type_info::__sub_kind, __cxxabiv1::__class_type_info const*, void const*, __cxxabiv1::__class_type_info const*, void const*, __cxxabiv1::__class_type_info::__dyncast_result&) const
 .text.__dynamic_cast
                0x0103fd70      0x178 /GCC/lib/gcc/ppc-amigaos/4.2.4/newlib/lib/libstdc++.a(tinfo.o)
                0x0103fd70                __dynamic_cast
 .text          0x0103fee8        0x0 /GCC/lib/gcc/ppc-amigaos/4.2.4/newlib/lib/libstdc++.a(vterminate.o)
 .text._ZN9__gnu_cxx27__verbose_terminate_handlerEv
                0x0103fee8      0x318 /GCC/lib/gcc/ppc-amigaos/4.2.4/newlib/lib/libstdc++.a(vterminate.o)
                0x0103feec                __gnu_cxx::__verbose_terminate_handler()
 .text          0x01040200     0x53a4 /GCC/lib/gcc/ppc-amigaos/4.2.4/newlib/lib/libstdc++.a(cp-demangle.o)
                0x01045470                __cxa_demangle
 .text          0x010455a4        0x0 /GCC/lib/gcc/ppc-amigaos/4.2.4/newlib/lib/libstdc++.a(eh_call.o)
 .text.__cxa_call_terminate
                0x010455a4       0x50 /GCC/lib/gcc/ppc-amigaos/4.2.4/newlib/lib/libstdc++.a(eh_call.o)
                0x010455a4                __cxa_call_terminate
 .text          0x010455f4        0x0 /GCC/lib/gcc/ppc-amigaos/4.2.4/newlib/lib/libstdc++.a(eh_type.o)
 .text.__cxa_current_exception_type
                0x010455f4       0x38 /GCC/lib/gcc/ppc-amigaos/4.2.4/newlib/lib/libstdc++.a(eh_type.o)
                0x010455f4                __cxa_current_exception_type
 .text          0x0104562c      0x7a0 /GCC/lib/gcc/ppc-amigaos/4.2.4/newlib/lib/libgcc_eh.a(unwind-sjlj.o)
                0x0104572c                _Unwind_GetIPInfo
                0x01045678                _Unwind_SjLj_Unregister
                0x01045714                _Unwind_GetIP
                0x01045778                _Unwind_GetRegionStart
                0x01045c88                _Unwind_Backtrace
                0x01045c10                _Unwind_SjLj_ForcedUnwind
                0x010456d4                _Unwind_GetCFA
                0x01045630                _Unwind_SjLj_Register
                0x01045910                _Unwind_DeleteException
                0x01045af8                _Unwind_SjLj_RaiseException
                0x01045a80                _Unwind_SjLj_Resume
                0x01045d4c                _Unwind_SjLj_Resume_or_Rethrow
                0x0104574c                _Unwind_SetIP
                0x010457a8                _Unwind_GetTextRelBase
                0x01045788                _Unwind_FindEnclosingFunction
                0x01045764                _Unwind_GetLanguageSpecificData
                0x010456f8                _Unwind_SetGR
                0x010456b8                _Unwind_GetGR
                0x01045798                _Unwind_GetDataRelBase
 .text          0x01045dcc        0x0 /SDK/newlib/lib/libc.a(lib_a-ctype_.o)
 .text          0x01045dcc        0x8 /SDK/newlib/lib/libc.a(stub_abort.o)
                0x01045dcc                abort
 .text          0x01045dd4        0x8 /SDK/newlib/lib/libc.a(stub_accept.o)
                0x01045dd4                accept
 .text          0x01045ddc        0x8 /SDK/newlib/lib/libc.a(stub_access.o)
                0x01045ddc                access
 .text          0x01045de4        0x8 /SDK/newlib/lib/libc.a(stub___assert.o)
                0x01045de4                __assert
 .text          0x01045dec        0x8 /SDK/newlib/lib/libc.a(stub_atoi.o)
                0x01045dec                atoi
 .text          0x01045df4        0x8 /SDK/newlib/lib/libc.a(stub_bind.o)
                0x01045df4                bind
 .text          0x01045dfc        0x8 /SDK/newlib/lib/libc.a(stub_calloc.o)
                0x01045dfc                calloc
 .text          0x01045e04        0x8 /SDK/newlib/lib/libc.a(stub_close.o)
                0x01045e04                close
 .text          0x01045e0c        0x8 /SDK/newlib/lib/libc.a(stub_connect.o)
                0x01045e0c                connect
 .text          0x01045e14        0x8 /SDK/newlib/lib/libc.a(stub___errno.o)
                0x01045e14                __errno
 .text          0x01045e1c        0x8 /SDK/newlib/lib/libc.a(stub_fclose.o)
                0x01045e1c                fclose
 .text          0x01045e24        0x8 /SDK/newlib/lib/libc.a(stub_fcntl.o)
                0x01045e24                fcntl
 .text          0x01045e2c        0x8 /SDK/newlib/lib/libc.a(stub_feof.o)
                0x01045e2c                feof
 .text          0x01045e34        0x8 /SDK/newlib/lib/libc.a(stub_fflush.o)
                0x01045e34                fflush
 .text          0x01045e3c        0x8 /SDK/newlib/lib/libc.a(stub_fgets.o)
                0x01045e3c                fgets
 .text          0x01045e44        0x8 /SDK/newlib/lib/libc.a(stub_fmod.o)
                0x01045e44                fmod
 .text          0x01045e4c        0x8 /SDK/newlib/lib/libc.a(stub_fopen.o)
                0x01045e4c                fopen
 .text          0x01045e54        0x8 /SDK/newlib/lib/libc.a(stub_fprintf.o)
                0x01045e54                fprintf
 .text          0x01045e5c        0x8 /SDK/newlib/lib/libc.a(stub_fputc.o)
                0x01045e5c                fputc
 .text          0x01045e64        0x8 /SDK/newlib/lib/libc.a(stub_fputs.o)
                0x01045e64                fputs
 .text          0x01045e6c        0x8 /SDK/newlib/lib/libc.a(stub_fread.o)
                0x01045e6c                fread
 .text          0x01045e74        0x8 /SDK/newlib/lib/libc.a(stub_free.o)
                0x01045e74                free
 .text          0x01045e7c        0x8 /SDK/newlib/lib/libc.a(stub_fseek.o)
                0x01045e7c                fseek
 .text          0x01045e84        0x8 /SDK/newlib/lib/libc.a(stub_fstat.o)
                0x01045e84                fstat
 .text          0x01045e8c        0x8 /SDK/newlib/lib/libc.a(stub_ftell.o)
                0x01045e8c                ftell
 .text          0x01045e94        0x8 /SDK/newlib/lib/libc.a(stub_ftruncate.o)
                0x01045e94                ftruncate
 .text          0x01045e9c        0x8 /SDK/newlib/lib/libc.a(stub_fwrite.o)
                0x01045e9c                fwrite
 .text          0x01045ea4        0x8 /SDK/newlib/lib/libc.a(stub_getenv.o)
                0x01045ea4                getenv
 .text          0x01045eac        0x8 /SDK/newlib/lib/libc.a(stub_gethostbyaddr.o)
                0x01045eac                gethostbyaddr
 .text          0x01045eb4        0x8 /SDK/newlib/lib/libc.a(stub_gethostbyname.o)
                0x01045eb4                gethostbyname
 .text          0x01045ebc        0x8 /SDK/newlib/lib/libc.a(stub_gethostname.o)
                0x01045ebc                gethostname
 .text          0x01045ec4        0x8 /SDK/newlib/lib/libc.a(stub_getpid.o)
                0x01045ec4                getpid
 .text          0x01045ecc        0x8 /SDK/newlib/lib/libc.a(stub_getpwnam.o)
                0x01045ecc                getpwnam
 .text          0x01045ed4        0x8 /SDK/newlib/lib/libc.a(stub_getpwuid.o)
                0x01045ed4                getpwuid
 .text          0x01045edc        0x8 /SDK/newlib/lib/libc.a(stub___getreent.o)
                0x01045edc                __getreent
 .text          0x01045ee4        0x8 /SDK/newlib/lib/libc.a(stub_getservbyname.o)
                0x01045ee4                getservbyname
 .text          0x01045eec        0x8 /SDK/newlib/lib/libc.a(stub_getuid.o)
                0x01045eec                getuid
 .text          0x01045ef4        0x8 /SDK/newlib/lib/libc.a(stub_gmtime.o)
                0x01045ef4                gmtime
 .text          0x01045efc        0x8 /SDK/newlib/lib/libc.a(stub___h_errno.o)
                0x01045efc                __h_errno
 .text          0x01045f04        0x8 /SDK/newlib/lib/libc.a(stub_hstrerror.o)
                0x01045f04                hstrerror
 .text          0x01045f0c        0x8 /SDK/newlib/lib/libc.a(stub_listen.o)
                0x01045f0c                listen
 .text          0x01045f14        0x8 /SDK/newlib/lib/libc.a(stub_localeconv.o)
                0x01045f14                localeconv
 .text          0x01045f1c        0x8 /SDK/newlib/lib/libc.a(stub_localtime.o)
                0x01045f1c                localtime
 .text          0x01045f24        0x8 /SDK/newlib/lib/libc.a(stub_lseek.o)
                0x01045f24                lseek
 .text          0x01045f2c        0x8 /SDK/newlib/lib/libc.a(stub_lstat.o)
                0x01045f2c                lstat
 .text          0x01045f34        0x8 /SDK/newlib/lib/libc.a(stub_malloc.o)
                0x01045f34                malloc
 .text          0x01045f3c        0x8 /SDK/newlib/lib/libc.a(stub_memchr.o)
                0x01045f3c                memchr
 .text          0x01045f44        0x8 /SDK/newlib/lib/libc.a(stub_memcmp.o)
                0x01045f44                memcmp
 .text          0x01045f4c        0x8 /SDK/newlib/lib/libc.a(stub_memcpy.o)
                0x01045f4c                memcpy
 .text          0x01045f54        0x8 /SDK/newlib/lib/libc.a(stub_memmove.o)
                0x01045f54                memmove
 .text          0x01045f5c        0x8 /SDK/newlib/lib/libc.a(stub_memset.o)
                0x01045f5c                memset
 .text          0x01045f64        0x8 /SDK/newlib/lib/libc.a(stub_mktime.o)
                0x01045f64                mktime
 .text          0x01045f6c       0x14 /SDK/newlib/lib/libc.a(stub___NewlibCall.o)
                0x01045f6c                __NewlibCall
 .text          0x01045f80        0x8 /SDK/newlib/lib/libc.a(stub_open.o)
                0x01045f80                open
 .text          0x01045f88        0x8 /SDK/newlib/lib/libc.a(stub_perror.o)
                0x01045f88                perror
 .text          0x01045f90        0x8 /SDK/newlib/lib/libc.a(stub_printf.o)
                0x01045f90                printf
 .text          0x01045f98        0x8 /SDK/newlib/lib/libc.a(stub_putchar.o)
                0x01045f98                putchar
 .text          0x01045fa0        0x8 /SDK/newlib/lib/libc.a(stub_puts.o)
                0x01045fa0                puts
 .text          0x01045fa8        0x8 /SDK/newlib/lib/libc.a(stub_rand.o)
                0x01045fa8                rand
 .text          0x01045fb0        0x8 /SDK/newlib/lib/libc.a(stub_read.o)
                0x01045fb0                read
 .text          0x01045fb8        0x8 /SDK/newlib/lib/libc.a(stub_realloc.o)
                0x01045fb8                realloc
 .text          0x01045fc0        0x8 /SDK/newlib/lib/libc.a(stub_recv.o)
                0x01045fc0                recv
 .text          0x01045fc8        0x8 /SDK/newlib/lib/libc.a(stub_select.o)
                0x01045fc8                select
 .text          0x01045fd0        0x8 /SDK/newlib/lib/libc.a(stub_send.o)
                0x01045fd0                send
 .text          0x01045fd8        0x8 /SDK/newlib/lib/libc.a(stub_setlocale.o)
                0x01045fd8                setlocale
 .text          0x01045fe0        0x8 /SDK/newlib/lib/libc.a(stub_setsockopt.o)
                0x01045fe0                setsockopt
 .text          0x01045fe8        0x8 /SDK/newlib/lib/libc.a(stub_shutdown.o)
                0x01045fe8                shutdown
 .text          0x01045ff0        0x8 /SDK/newlib/lib/libc.a(stub_signal.o)
                0x01045ff0                signal
 .text          0x01045ff8        0x8 /SDK/newlib/lib/libc.a(stub_snprintf.o)
                0x01045ff8                snprintf
 .text          0x01046000        0x8 /SDK/newlib/lib/libc.a(stub_socket.o)
                0x01046000                socket
 .text          0x01046008        0x8 /SDK/newlib/lib/libc.a(stub_sprintf.o)
                0x01046008                sprintf
 .text          0x01046010        0x8 /SDK/newlib/lib/libc.a(stub___srget.o)
                0x01046010                __srget
 .text          0x01046018        0x8 /SDK/newlib/lib/libc.a(stub_sscanf.o)
                0x01046018                sscanf
 .text          0x01046020        0x8 /SDK/newlib/lib/libc.a(stub_stat.o)
                0x01046020                stat
 .text          0x01046028        0x8 /SDK/newlib/lib/libc.a(stub_strcat.o)
                0x01046028                strcat
 .text          0x01046030        0x8 /SDK/newlib/lib/libc.a(stub_strchr.o)
                0x01046030                strchr
 .text          0x01046038        0x8 /SDK/newlib/lib/libc.a(stub_strcmp.o)
                0x01046038                strcmp
 .text          0x01046040        0x8 /SDK/newlib/lib/libc.a(stub_strcpy.o)
                0x01046040                strcpy
 .text          0x01046048        0x8 /SDK/newlib/lib/libc.a(stub_strdup.o)
                0x01046048                strdup
 .text          0x01046050        0x8 /SDK/newlib/lib/libc.a(stub_strerror.o)
                0x01046050                strerror
 .text          0x01046058        0x8 /SDK/newlib/lib/libc.a(stub_strftime.o)
                0x01046058                strftime
 .text          0x01046060        0x8 /SDK/newlib/lib/libc.a(stub_strlen.o)
                0x01046060                strlen
 .text          0x01046068        0x8 /SDK/newlib/lib/libc.a(stub_strncasecmp.o)
                0x01046068                strncasecmp
 .text          0x01046070        0x8 /SDK/newlib/lib/libc.a(stub_strncmp.o)
                0x01046070                strncmp
 .text          0x01046078        0x8 /SDK/newlib/lib/libc.a(stub_strncpy.o)
                0x01046078                strncpy
 .text          0x01046080        0x8 /SDK/newlib/lib/libc.a(stub_strpbrk.o)
                0x01046080                strpbrk
 .text          0x01046088        0x8 /SDK/newlib/lib/libc.a(stub_strrchr.o)
                0x01046088                strrchr
 .text          0x01046090        0x8 /SDK/newlib/lib/libc.a(stub_strstr.o)
                0x01046090                strstr
 .text          0x01046098        0x8 /SDK/newlib/lib/libc.a(stub_strtod.o)
                0x01046098                strtod
 .text          0x010460a0        0x8 /SDK/newlib/lib/libc.a(stub_strtol.o)
                0x010460a0                strtol
 .text          0x010460a8        0x8 /SDK/newlib/lib/libc.a(stub_strtoll.o)
                0x010460a8                strtoll
 .text          0x010460b0        0x8 /SDK/newlib/lib/libc.a(stub_time.o)
                0x010460b0                time
 .text          0x010460b8        0x8 /SDK/newlib/lib/libc.a(stub_uname.o)
                0x010460b8                uname
 .text          0x010460c0        0x8 /SDK/newlib/lib/libc.a(stub_vsnprintf.o)
                0x010460c0                vsnprintf
 .text          0x010460c8        0x8 /SDK/newlib/lib/libc.a(stub_write.o)
                0x010460c8                write
 *(.text.*personality*)
 *(.gnu.warning)
 *(.glink)
                0x01047000                . = ALIGN (0x1000)

.plt
 *(.plt)
                0x01047000                . = ALIGN (0x1000)

.fini
 *(.fini)
                0x01047000                PROVIDE (__etext, .)
                0x01047000                PROVIDE (_etext, .)
                0x01047000                PROVIDE (etext, .)

.rodata         0x01047000     0xefec
 *(.rodata .rodata.* .gnu.linkonce.r.*)
 .rodata        0x01047000       0xd0 ipp_dev.o
 .rodata.cst4   0x010470d0       0x24 ipp_dev.o
 .rodata.str1.4
                0x010470f4      0x13d ipp_dev.o
                                0x145 (size before relaxing)
 *fill*         0x01047231        0x3 00
 .rodata        0x01047234       0x58 dev_68k.o
                0x01047234                VecTable68K
 .rodata        0x0104728c      0x400 ../ipr/ipr.o
 .rodata.str1.4
                0x0104768c      0xcf9 ../ipr/ipr.o
                                0xd0d (size before relaxing)
 *fill*         0x01048385        0x3 00
 .rodata.str1.4
                0x01048388      0x958 ../ipr/iprutil.o
                                0xa80 (size before relaxing)
 .rodata        0x01048ce0       0xdc ../ipr/AttrGroups.o
 .rodata._ZTS10AttrGroups
                0x01048dbc        0xd ../ipr/AttrGroups.o
                0x01048dbc                typeinfo name for AttrGroups
 *fill*         0x01048dc9        0x3 00
 .rodata.str1.4
                0x01048dcc      0x130 ../ipr/AttrGroups.o
                                0x13c (size before relaxing)
 .rodata.cst4   0x01048efc       0x10 ../cups/libcups.a(http.o)
 .rodata.str1.4
                0x01048f0c      0x446 ../cups/libcups.a(http.o)
                                0x466 (size before relaxing)
 *fill*         0x01049352        0x2 00
 .rodata.str1.4
                0x01049354       0x34 ../cups/libcups.a(http-addr.o)
                                 0x44 (size before relaxing)
 .rodata.str1.4
                0x01049388       0x3a ../cups/libcups.a(http-addrlist.o)
                                 0x56 (size before relaxing)
 *fill*         0x010493c2        0x2 00
 .rodata        0x010493c4       0xf0 ../cups/libcups.a(http-support.o)
 .rodata.str1.4
                0x010494b4      0x5c4 ../cups/libcups.a(http-support.o)
                                0x634 (size before relaxing)
 .rodata        0x01049a78      0x630 ../cups/libcups.a(ipp.o)
 .rodata.cst4   0x00000000        0x8 ../cups/libcups.a(ipp.o)
 .rodata.str1.4
                0x0104a0a8      0xeea ../cups/libcups.a(ipp.o)
                               0x1034 (size before relaxing)
 *fill*         0x0104af92        0x2 00
 .rodata.str1.4
                0x0104af94       0x17 ../cups/libcups.a(langprintf.o)
                                 0x27 (size before relaxing)
 *fill*         0x0104afab        0x1 00
 .rodata.str1.4
                0x0104afac      0x3c7 ../cups/libcups.a(language.o)
                                0x3e3 (size before relaxing)
 *fill*         0x0104b373        0x1 00
 .rodata        0x0104b374       0x40 ../cups/libcups.a(md5.o)
 .rodata.str1.4
                0x0104b3b4       0x77 ../cups/libcups.a(request.o)
                                 0x9b (size before relaxing)
 .rodata.cst4   0x00000000        0x4 ../cups/libcups.a(string.o)
 *fill*         0x0104b42b        0x1 00
 .rodata.str1.4
                0x0104b42c        0x6 ../cups/libcups.a(string.o)
                                  0xf (size before relaxing)
 *fill*         0x0104b432        0x2 00
 .rodata.str1.4
                0x0104b434       0x48 ../cups/libcups.a(thread.o)
 .rodata.str1.4
                0x0104b47c      0x183 ../cups/libcups.a(usersys.o)
                                0x1b0 (size before relaxing)
 *fill*         0x0104b5ff        0x1 00
 .rodata.str1.4
                0x0104b600       0xaf ../cups/libcups.a(auth.o)
                                 0xbf (size before relaxing)
 *fill*         0x0104b6af        0x1 00
 .rodata        0x0104b6b0       0x14 ../cups/libcups.a(file.o)
 .rodata.str1.4
                0x0104b6c4      0x200 ../cups/libcups.a(file.o)
                                0x220 (size before relaxing)
 .rodata.str1.4
                0x0104b8c4       0x9a ../cups/libcups.a(globals.o)
 *fill*         0x0104b95e        0x2 00
 .rodata        0x0104b960       0xa4 ../cups/libcups.a(ipp-support.o)
 .rodata.str1.4
                0x0104ba04     0x512a ../cups/libcups.a(ipp-support.o)
                               0x5cd1 (size before relaxing)
 *fill*         0x01050b2e        0x2 00
 .rodata        0x01050b30       0x11 ../cups/libcups.a(md5passwd.o)
 *fill*         0x01050b41        0x3 00
 .rodata.str1.4
                0x01050b44        0x9 ../cups/libcups.a(md5passwd.o)
                                 0x11 (size before relaxing)
 *fill*         0x01050b4d        0x3 00
 .rodata        0x01050b50     0x2000 /SDK/local/newlib/lib/libz.a(crc32.o)
 .rodata        0x01052b50       0xbd /SDK/local/newlib/lib/libz.a(deflate.o)
                0x01052bc8                deflate_copyright
 *fill*         0x01052c0d        0x3 00
 .rodata        0x01052c10      0x922 /SDK/local/newlib/lib/libz.a(inflate.o)
 *fill*         0x01053532        0x2 00
 .rodata.str1.4
                0x01053534      0x1e7 /SDK/local/newlib/lib/libz.a(inflate.o)
 *fill*         0x0105371b        0x1 00
 .rodata        0x0105371c      0x12c /SDK/local/newlib/lib/libz.a(inftrees.o)
                0x01053818                inflate_copyright
 .rodata        0x01053848      0xa6c /SDK/local/newlib/lib/libz.a(trees.o)
                0x01053884                _length_code
                0x01053984                _dist_code
 .rodata        0x010542b4       0x28 /SDK/local/newlib/lib/libz.a(zutil.o)
                0x010542b4                z_errmsg
 .rodata.str1.4
                0x010542dc       0x7d /SDK/local/newlib/lib/libz.a(zutil.o)
                                 0x89 (size before relaxing)
 .rodata.str1.4
                0x00000000       0x54 /SDK/local/newlib/lib/libz.a(inffast.o)
 *fill*         0x01054359        0x3 00
 .rodata        0x0105435c      0x1b4 /SDK/local/newlib/lib/libregex.a(regcomp.o)
 .rodata.str1.4
                0x01054510      0x56c /SDK/local/newlib/lib/libregex.a(regcomp.o)
                                0x5b4 (size before relaxing)
 .rodata.str1.4
                0x01054a7c      0x2ca /SDK/local/newlib/lib/libregex.a(regerror.o)
                                0x2d6 (size before relaxing)
 *fill*         0x01054d46        0x2 00
 .rodata._ZTISt15underflow_error
                0x01054d48        0xc /GCC/lib/gcc/ppc-amigaos/4.2.4/newlib/lib/libstdc++.a(functexcept.o)
                0x01054d48                typeinfo for std::underflow_error
 .rodata._ZTSSt15underflow_error
                0x01054d54       0x14 /GCC/lib/gcc/ppc-amigaos/4.2.4/newlib/lib/libstdc++.a(functexcept.o)
                0x01054d54                typeinfo name for std::underflow_error
 .rodata._ZTVSt15underflow_error
                0x01054d68       0x14 /GCC/lib/gcc/ppc-amigaos/4.2.4/newlib/lib/libstdc++.a(functexcept.o)
                0x01054d68                vtable for std::underflow_error
 .rodata._ZTISt14overflow_error
                0x01054d7c        0xc /GCC/lib/gcc/ppc-amigaos/4.2.4/newlib/lib/libstdc++.a(functexcept.o)
                0x01054d7c                typeinfo for std::overflow_error
 .rodata._ZTSSt14overflow_error
                0x01054d88       0x13 /GCC/lib/gcc/ppc-amigaos/4.2.4/newlib/lib/libstdc++.a(functexcept.o)
                0x01054d88                typeinfo name for std::overflow_error
 *fill*         0x01054d9b        0x5 00
 .rodata._ZTVSt14overflow_error
                0x01054da0       0x14 /GCC/lib/gcc/ppc-amigaos/4.2.4/newlib/lib/libstdc++.a(functexcept.o)
                0x01054da0                vtable for std::overflow_error
 .rodata._ZTISt11range_error
                0x01054db4        0xc /GCC/lib/gcc/ppc-amigaos/4.2.4/newlib/lib/libstdc++.a(functexcept.o)
                0x01054db4                typeinfo for std::range_error
 .rodata._ZTSSt11range_error
                0x01054dc0       0x10 /GCC/lib/gcc/ppc-amigaos/4.2.4/newlib/lib/libstdc++.a(functexcept.o)
                0x01054dc0                typeinfo name for std::range_error
 .rodata._ZTVSt11range_error
                0x01054dd0       0x14 /GCC/lib/gcc/ppc-amigaos/4.2.4/newlib/lib/libstdc++.a(functexcept.o)
                0x01054dd0                vtable for std::range_error
 .rodata._ZTISt12out_of_range
                0x01054de4        0xc /GCC/lib/gcc/ppc-amigaos/4.2.4/newlib/lib/libstdc++.a(functexcept.o)
                0x01054de4                typeinfo for std::out_of_range
 .rodata._ZTSSt12out_of_range
                0x01054df0       0x11 /GCC/lib/gcc/ppc-amigaos/4.2.4/newlib/lib/libstdc++.a(functexcept.o)
                0x01054df0                typeinfo name for std::out_of_range
 *fill*         0x01054e01        0x7 00
 .rodata._ZTVSt12out_of_range
                0x01054e08       0x14 /GCC/lib/gcc/ppc-amigaos/4.2.4/newlib/lib/libstdc++.a(functexcept.o)
                0x01054e08                vtable for std::out_of_range
 .rodata._ZTISt12length_error
                0x01054e1c        0xc /GCC/lib/gcc/ppc-amigaos/4.2.4/newlib/lib/libstdc++.a(functexcept.o)
                0x01054e1c                typeinfo for std::length_error
 .rodata._ZTSSt12length_error
                0x01054e28       0x11 /GCC/lib/gcc/ppc-amigaos/4.2.4/newlib/lib/libstdc++.a(functexcept.o)
                0x01054e28                typeinfo name for std::length_error
 *fill*         0x01054e39        0x7 00
 .rodata._ZTVSt12length_error
                0x01054e40       0x14 /GCC/lib/gcc/ppc-amigaos/4.2.4/newlib/lib/libstdc++.a(functexcept.o)
                0x01054e40                vtable for std::length_error
 .rodata._ZTISt16invalid_argument
                0x01054e54        0xc /GCC/lib/gcc/ppc-amigaos/4.2.4/newlib/lib/libstdc++.a(functexcept.o)
                0x01054e54                typeinfo for std::invalid_argument
 .rodata._ZTSSt16invalid_argument
                0x01054e60       0x15 /GCC/lib/gcc/ppc-amigaos/4.2.4/newlib/lib/libstdc++.a(functexcept.o)
                0x01054e60                typeinfo name for std::invalid_argument
 *fill*         0x01054e75        0x3 00
 .rodata._ZTVSt16invalid_argument
                0x01054e78       0x14 /GCC/lib/gcc/ppc-amigaos/4.2.4/newlib/lib/libstdc++.a(functexcept.o)
                0x01054e78                vtable for std::invalid_argument
 .rodata._ZTISt12domain_error
                0x01054e8c        0xc /GCC/lib/gcc/ppc-amigaos/4.2.4/newlib/lib/libstdc++.a(functexcept.o)
                0x01054e8c                typeinfo for std::domain_error
 .rodata._ZTSSt12domain_error
                0x01054e98       0x11 /GCC/lib/gcc/ppc-amigaos/4.2.4/newlib/lib/libstdc++.a(functexcept.o)
                0x01054e98                typeinfo name for std::domain_error
 *fill*         0x01054ea9        0x7 00
 .rodata._ZTVSt12domain_error
                0x01054eb0       0x14 /GCC/lib/gcc/ppc-amigaos/4.2.4/newlib/lib/libstdc++.a(functexcept.o)
                0x01054eb0                vtable for std::domain_error
 *fill*         0x01054ec4        0x4 00
 .rodata._ZTVNSt8ios_base7failureE
                0x01054ec8       0x14 /GCC/lib/gcc/ppc-amigaos/4.2.4/newlib/lib/libstdc++.a(ios_failure.o)
                0x01054ec8                vtable for std::ios_base::failure
 .rodata._ZTSNSt8ios_base7failureE
                0x01054edc       0x16 /GCC/lib/gcc/ppc-amigaos/4.2.4/newlib/lib/libstdc++.a(ios_failure.o)
                0x01054edc                typeinfo name for std::ios_base::failure
 *fill*         0x01054ef2        0x2 00
 .rodata._ZTINSt8ios_base7failureE
                0x01054ef4        0xc /GCC/lib/gcc/ppc-amigaos/4.2.4/newlib/lib/libstdc++.a(ios_failure.o)
                0x01054ef4                typeinfo for std::ios_base::failure
 .rodata._ZTVSt13runtime_error
                0x01054f00       0x14 /GCC/lib/gcc/ppc-amigaos/4.2.4/newlib/lib/libstdc++.a(stdexcept.o)
                0x01054f00                vtable for std::runtime_error
 *fill*         0x01054f14        0x4 00
 .rodata._ZTVSt11logic_error
                0x01054f18       0x14 /GCC/lib/gcc/ppc-amigaos/4.2.4/newlib/lib/libstdc++.a(stdexcept.o)
                0x01054f18                vtable for std::logic_error
 .rodata._ZTSSt13runtime_error
                0x01054f2c       0x12 /GCC/lib/gcc/ppc-amigaos/4.2.4/newlib/lib/libstdc++.a(stdexcept.o)
                0x01054f2c                typeinfo name for std::runtime_error
 *fill*         0x01054f3e        0x2 00
 .rodata._ZTISt13runtime_error
                0x01054f40        0xc /GCC/lib/gcc/ppc-amigaos/4.2.4/newlib/lib/libstdc++.a(stdexcept.o)
                0x01054f40                typeinfo for std::runtime_error
 .rodata._ZTSSt11logic_error
                0x01054f4c       0x10 /GCC/lib/gcc/ppc-amigaos/4.2.4/newlib/lib/libstdc++.a(stdexcept.o)
                0x01054f4c                typeinfo name for std::logic_error
 .rodata._ZTISt11logic_error
                0x01054f5c        0xc /GCC/lib/gcc/ppc-amigaos/4.2.4/newlib/lib/libstdc++.a(stdexcept.o)
                0x01054f5c                typeinfo for std::logic_error
 .rodata.str1.4
                0x01054f68      0x161 /GCC/lib/gcc/ppc-amigaos/4.2.4/newlib/lib/libstdc++.a(string-inst.o)
 *fill*         0x010550c9        0x3 00
 .rodata._ZTSSt13bad_exception
                0x010550cc       0x12 /GCC/lib/gcc/ppc-amigaos/4.2.4/newlib/lib/libstdc++.a(eh_exception.o)
                0x010550cc                typeinfo name for std::bad_exception
 *fill*         0x010550de        0x2 00
 .rodata._ZTSSt9exception
                0x010550e0        0xd /GCC/lib/gcc/ppc-amigaos/4.2.4/newlib/lib/libstdc++.a(eh_exception.o)
                0x010550e0                typeinfo name for std::exception
 *fill*         0x010550ed        0x3 00
 .rodata.str1.4
                0x010550f0       0x23 /GCC/lib/gcc/ppc-amigaos/4.2.4/newlib/lib/libstdc++.a(eh_exception.o)
 *fill*         0x01055113        0x1 00
 .rodata._Z28read_encoded_value_with_basehjPKhPj
                0x01055114       0x34 /GCC/lib/gcc/ppc-amigaos/4.2.4/newlib/lib/libstdc++.a(eh_personality.o)
 .rodata._ZTSSt9bad_alloc
                0x01055148        0xd /GCC/lib/gcc/ppc-amigaos/4.2.4/newlib/lib/libstdc++.a(new_handler.o)
                0x01055148                typeinfo name for std::bad_alloc
 *fill*         0x01055155        0x3 00
 .rodata.str1.4
                0x01055158        0xf /GCC/lib/gcc/ppc-amigaos/4.2.4/newlib/lib/libstdc++.a(new_handler.o)
 *fill*         0x01055167        0x1 00
 .rodata._ZTSN10__cxxabiv121__vmi_class_type_infoE
                0x01055168       0x26 /GCC/lib/gcc/ppc-amigaos/4.2.4/newlib/lib/libstdc++.a(tinfo.o)
                0x01055168                typeinfo name for __cxxabiv1::__vmi_class_type_info
 *fill*         0x0105518e        0x2 00
 .rodata._ZTSN10__cxxabiv120__si_class_type_infoE
                0x01055190       0x25 /GCC/lib/gcc/ppc-amigaos/4.2.4/newlib/lib/libstdc++.a(tinfo.o)
                0x01055190                typeinfo name for __cxxabiv1::__si_class_type_info
 *fill*         0x010551b5        0x3 00
 .rodata._ZTSN10__cxxabiv117__class_type_infoE
                0x010551b8       0x22 /GCC/lib/gcc/ppc-amigaos/4.2.4/newlib/lib/libstdc++.a(tinfo.o)
                0x010551b8                typeinfo name for __cxxabiv1::__class_type_info
 *fill*         0x010551da        0x2 00
 .rodata._ZTSSt10bad_typeid
                0x010551dc        0xf /GCC/lib/gcc/ppc-amigaos/4.2.4/newlib/lib/libstdc++.a(tinfo.o)
                0x010551dc                typeinfo name for std::bad_typeid
 *fill*         0x010551eb        0x1 00
 .rodata._ZTSSt8bad_cast
                0x010551ec        0xc /GCC/lib/gcc/ppc-amigaos/4.2.4/newlib/lib/libstdc++.a(tinfo.o)
                0x010551ec                typeinfo name for std::bad_cast
 .rodata._ZTSSt9type_info
                0x010551f8        0xd /GCC/lib/gcc/ppc-amigaos/4.2.4/newlib/lib/libstdc++.a(tinfo.o)
                0x010551f8                typeinfo name for std::type_info
 *fill*         0x01055205        0x3 00
 .rodata.str1.4
                0x01055208       0x20 /GCC/lib/gcc/ppc-amigaos/4.2.4/newlib/lib/libstdc++.a(tinfo.o)
 .rodata.str1.4
                0x01055228       0x92 /GCC/lib/gcc/ppc-amigaos/4.2.4/newlib/lib/libstdc++.a(vterminate.o)
 *fill*         0x010552ba        0x2 00
 .rodata        0x010552bc      0x4e8 /GCC/lib/gcc/ppc-amigaos/4.2.4/newlib/lib/libstdc++.a(cp-demangle.o)
 .rodata.str1.4
                0x010557a4      0x5c4 /GCC/lib/gcc/ppc-amigaos/4.2.4/newlib/lib/libstdc++.a(cp-demangle.o)
                                0x630 (size before relaxing)
 .rodata        0x01055d68      0x284 /SDK/newlib/lib/libc.a(lib_a-ctype_.o)
                0x01055d68                _ctype_

.rodata1
 *(.rodata1)

.sdata2
 *(.sdata2 .sdata2.* .gnu.linkonce.s2.*)

.sbss2
 *(.sbss2 .sbss2.* .gnu.linkonce.sb2.*)

.eh_frame_hdr
 *(.eh_frame_hdr)

.eh_frame
 *(.eh_frame)

.gcc_except_table
                0x01055fec      0x200
 *(.gcc_except_table .gcc_except_table.*)
 .gcc_except_table
                0x01055fec        0xa ../ipr/ipr.o
 *fill*         0x01055ff6        0x2 00
 .gcc_except_table
                0x01055ff8       0x96 ../ipr/AttrGroups.o
 .gcc_except_table
                0x0105608e       0x4e /GCC/lib/gcc/ppc-amigaos/4.2.4/newlib/lib/libstdc++.a(functexcept.o)
 .gcc_except_table
                0x010560dc       0x1d /GCC/lib/gcc/ppc-amigaos/4.2.4/newlib/lib/libstdc++.a(ios_failure.o)
 .gcc_except_table
                0x010560f9       0x18 /GCC/lib/gcc/ppc-amigaos/4.2.4/newlib/lib/libstdc++.a(stdexcept.o)
 .gcc_except_table
                0x01056111       0x4a /GCC/lib/gcc/ppc-amigaos/4.2.4/newlib/lib/libstdc++.a(string-inst.o)
 *fill*         0x0105615b        0x1 00
 .gcc_except_table
                0x0105615c        0xd /GCC/lib/gcc/ppc-amigaos/4.2.4/newlib/lib/libstdc++.a(eh_alloc.o)
 *fill*         0x01056169        0x3 00
 .gcc_except_table
                0x0105616c        0xd /GCC/lib/gcc/ppc-amigaos/4.2.4/newlib/lib/libstdc++.a(eh_catch.o)
 *fill*         0x01056179        0x3 00
 .gcc_except_table
                0x0105617c       0x20 /GCC/lib/gcc/ppc-amigaos/4.2.4/newlib/lib/libstdc++.a(eh_personality.o)
 .gcc_except_table
                0x0105619c       0x10 /GCC/lib/gcc/ppc-amigaos/4.2.4/newlib/lib/libstdc++.a(eh_terminate.o)
 .gcc_except_table
                0x010561ac       0x12 /GCC/lib/gcc/ppc-amigaos/4.2.4/newlib/lib/libstdc++.a(new_op.o)
 *fill*         0x010561be        0x2 00
 .gcc_except_table
                0x010561c0       0x12 /GCC/lib/gcc/ppc-amigaos/4.2.4/newlib/lib/libstdc++.a(new_opv.o)
 *fill*         0x010561d2        0x2 00
 .gcc_except_table
                0x010561d4       0x18 /GCC/lib/gcc/ppc-amigaos/4.2.4/newlib/lib/libstdc++.a(vterminate.o)
                0x010561ec                . = .

.eh_frame
 *(.eh_frame)

.gcc_except_table
 *(.gcc_except_table .gcc_except_table.*)

.tdata
 *(.tdata .tdata.* .gnu.linkonce.td.*)

.tbss
 *(.tbss .tbss.* .gnu.linkonce.tb.*)
 *(.tcommon)

.preinit_array  0x010561ec        0x0
                0x010561ec                PROVIDE (__preinit_array_start, .)
 *(.preinit_array)
                0x010561ec                PROVIDE (__preinit_array_end, .)

.init_array     0x010561ec        0x0
                0x010561ec                PROVIDE (__init_array_start, .)
 *(SORT(.init_array.*))
 *(.init_array)
                0x010561ec                PROVIDE (__init_array_end, .)

.fini_array     0x010561ec        0x0
                0x010561ec                PROVIDE (__fini_array_start, .)
 *(.fini_array)
 *(SORT(.fini_array.*))
                0x010561ec                PROVIDE (__fini_array_end, .)

.ctors          0x010561ec        0x8
 *crtbegin.o(.ctors)
 *crtbegin?.o(.ctors)
 *(EXCLUDE_FILE(*crtend?.o *crtend.o) .ctors)
 .ctors         0x010561ec        0x4 ../ipr/ipr.o
 .ctors         0x010561f0        0x4 /GCC/lib/gcc/ppc-amigaos/4.2.4/newlib/lib/libstdc++.a(eh_alloc.o)
 *(SORT(.ctors.*))
 *(.ctors)

.dtors
 *crtbegin.o(.dtors)
 *crtbegin?.o(.dtors)
 *(EXCLUDE_FILE(*crtend?.o *crtend.o) .dtors)
 *(SORT(.dtors.*))
 *(.dtors)

.jcr
 *(.jcr)

.data.rel.ro    0x010561f8     0x25f4
 *(.data.rel.ro.local* .gnu.linkonce.d.rel.ro.local.*)
 .data.rel.ro.local
                0x010561f8       0x1c ../ipr/ipr.o
 .data.rel.ro.local
                0x01056214      0x3a4 ../ipr/iprutil.o
 .data.rel.ro.local
                0x010565b8       0x30 ../ipr/AttrGroups.o
 .data.rel.ro.local
                0x010565e8       0xc4 ../cups/libcups.a(http.o)
 .data.rel.ro.local
                0x010566ac       0x90 ../cups/libcups.a(http-support.o)
 .data.rel.ro.local
                0x0105673c       0x30 ../cups/libcups.a(ipp.o)
 .data.rel.ro.local
                0x0105676c      0x428 ../cups/libcups.a(language.o)
 .data.rel.ro.local
                0x01056b94     0x14e4 ../cups/libcups.a(ipp-support.o)
 .data.rel.ro.local
                0x01058078      0x5ec /GCC/lib/gcc/ppc-amigaos/4.2.4/newlib/lib/libstdc++.a(cp-demangle.o)
 *(.data.rel.ro* .gnu.linkonce.d.rel.ro.*)
 *fill*         0x01058664        0x4 00
 .data.rel.ro._ZTV10AttrGroups
                0x01058668       0x10 ../ipr/AttrGroups.o
                0x01058668                vtable for AttrGroups
 .data.rel.ro._ZTVSt13bad_exception
                0x01058678       0x14 /GCC/lib/gcc/ppc-amigaos/4.2.4/newlib/lib/libstdc++.a(eh_exception.o)
                0x01058678                vtable for std::bad_exception
 *fill*         0x0105868c        0x4 00
 .data.rel.ro._ZTVSt9exception
                0x01058690       0x14 /GCC/lib/gcc/ppc-amigaos/4.2.4/newlib/lib/libstdc++.a(eh_exception.o)
                0x01058690                vtable for std::exception
 .data.rel.ro._ZTISt13bad_exception
                0x010586a4        0xc /GCC/lib/gcc/ppc-amigaos/4.2.4/newlib/lib/libstdc++.a(eh_exception.o)
                0x010586a4                typeinfo for std::bad_exception
 .data.rel.ro._ZTVSt9bad_alloc
                0x010586b0       0x14 /GCC/lib/gcc/ppc-amigaos/4.2.4/newlib/lib/libstdc++.a(new_handler.o)
                0x010586b0                vtable for std::bad_alloc
 .data.rel.ro._ZTISt9bad_alloc
                0x010586c4        0xc /GCC/lib/gcc/ppc-amigaos/4.2.4/newlib/lib/libstdc++.a(new_handler.o)
                0x010586c4                typeinfo for std::bad_alloc
 .data.rel.ro._ZTVN10__cxxabiv121__vmi_class_type_infoE
                0x010586d0       0x2c /GCC/lib/gcc/ppc-amigaos/4.2.4/newlib/lib/libstdc++.a(tinfo.o)
                0x010586d0                vtable for __cxxabiv1::__vmi_class_type_info
 *fill*         0x010586fc        0x4 00
 .data.rel.ro._ZTVN10__cxxabiv120__si_class_type_infoE
                0x01058700       0x2c /GCC/lib/gcc/ppc-amigaos/4.2.4/newlib/lib/libstdc++.a(tinfo.o)
                0x01058700                vtable for __cxxabiv1::__si_class_type_info
 *fill*         0x0105872c        0x4 00
 .data.rel.ro._ZTVN10__cxxabiv117__class_type_infoE
                0x01058730       0x2c /GCC/lib/gcc/ppc-amigaos/4.2.4/newlib/lib/libstdc++.a(tinfo.o)
                0x01058730                vtable for __cxxabiv1::__class_type_info
 *fill*         0x0105875c        0x4 00
 .data.rel.ro._ZTVSt10bad_typeid
                0x01058760       0x14 /GCC/lib/gcc/ppc-amigaos/4.2.4/newlib/lib/libstdc++.a(tinfo.o)
                0x01058760                vtable for std::bad_typeid
 *fill*         0x01058774        0x4 00
 .data.rel.ro._ZTVSt8bad_cast
                0x01058778       0x14 /GCC/lib/gcc/ppc-amigaos/4.2.4/newlib/lib/libstdc++.a(tinfo.o)
                0x01058778                vtable for std::bad_cast
 *fill*         0x0105878c        0x4 00
 .data.rel.ro._ZTVSt9type_info
                0x01058790       0x20 /GCC/lib/gcc/ppc-amigaos/4.2.4/newlib/lib/libstdc++.a(tinfo.o)
                0x01058790                vtable for std::type_info
 .data.rel.ro._ZTIN10__cxxabiv121__vmi_class_type_infoE
                0x010587b0        0xc /GCC/lib/gcc/ppc-amigaos/4.2.4/newlib/lib/libstdc++.a(tinfo.o)
                0x010587b0                typeinfo for __cxxabiv1::__vmi_class_type_info
 .data.rel.ro._ZTIN10__cxxabiv120__si_class_type_infoE
                0x010587bc        0xc /GCC/lib/gcc/ppc-amigaos/4.2.4/newlib/lib/libstdc++.a(tinfo.o)
                0x010587bc                typeinfo for __cxxabiv1::__si_class_type_info
 .data.rel.ro._ZTIN10__cxxabiv117__class_type_infoE
                0x010587c8        0xc /GCC/lib/gcc/ppc-amigaos/4.2.4/newlib/lib/libstdc++.a(tinfo.o)
                0x010587c8                typeinfo for __cxxabiv1::__class_type_info
 .data.rel.ro._ZTISt10bad_typeid
                0x010587d4        0xc /GCC/lib/gcc/ppc-amigaos/4.2.4/newlib/lib/libstdc++.a(tinfo.o)
                0x010587d4                typeinfo for std::bad_typeid
 .data.rel.ro._ZTISt8bad_cast
                0x010587e0        0xc /GCC/lib/gcc/ppc-amigaos/4.2.4/newlib/lib/libstdc++.a(tinfo.o)
                0x010587e0                typeinfo for std::bad_cast

.dynamic
 *(.dynamic)

.got
 *(.got)

.data           0x010587ec      0x494
                0x010587ec                _DATA_BASE_ = .
 *(.data .data.* .gnu.linkonce.d.*)
 .data          0x010587ec       0x16 ipp_dev.o
 .data          0x01058802        0x0 dev_68k.o
 .data          0x01058802        0x0 ../ipr/ipr.o
 *fill*         0x01058802        0x2 00
 .data          0x01058804        0x4 ../ipr/iprutil.o
 .data          0x01058808        0x4 ../ipr/AttrGroups.o
 .data          0x0105880c        0x0 ../cups/libcups.a(http.o)
 .data          0x0105880c        0x0 ../cups/libcups.a(http-addr.o)
 .data          0x0105880c        0x0 ../cups/libcups.a(http-addrlist.o)
 .data          0x0105880c        0x0 ../cups/libcups.a(http-support.o)
 .data          0x0105880c        0x0 ../cups/libcups.a(ipp.o)
 .data          0x0105880c        0x0 ../cups/libcups.a(langprintf.o)
 .data          0x0105880c        0x0 ../cups/libcups.a(language.o)
 .data          0x0105880c        0x0 ../cups/libcups.a(md5.o)
 .data          0x0105880c        0x0 ../cups/libcups.a(request.o)
 .data          0x0105880c        0x0 ../cups/libcups.a(string.o)
 .data          0x0105880c        0x0 ../cups/libcups.a(thread.o)
 .data          0x0105880c        0x0 ../cups/libcups.a(transcode.o)
 .data          0x0105880c        0x0 ../cups/libcups.a(usersys.o)
 .data          0x0105880c        0x0 ../cups/libcups.a(array.o)
 .data          0x0105880c        0x0 ../cups/libcups.a(auth.o)
 .data          0x0105880c        0x0 ../cups/libcups.a(file.o)
 .data          0x0105880c        0x0 ../cups/libcups.a(globals.o)
 .data          0x0105880c        0x0 ../cups/libcups.a(ipp-support.o)
 .data          0x0105880c        0x0 ../cups/libcups.a(md5passwd.o)
 .data          0x0105880c        0x0 /SDK/local/newlib/lib/libz.a(crc32.o)
 .data          0x0105880c        0x0 /SDK/local/newlib/lib/libz.a(deflate.o)
 .data          0x0105880c        0x0 /SDK/local/newlib/lib/libz.a(inflate.o)
 .data          0x0105880c        0x0 /SDK/local/newlib/lib/libz.a(inftrees.o)
 .data          0x0105880c        0x0 /SDK/local/newlib/lib/libz.a(trees.o)
 .data          0x0105880c        0x0 /SDK/local/newlib/lib/libz.a(zutil.o)
 .data          0x0105880c        0x0 /SDK/local/newlib/lib/libz.a(adler32.o)
 .data          0x0105880c        0x0 /SDK/local/newlib/lib/libz.a(inffast.o)
 .data          0x0105880c      0x39c /SDK/local/newlib/lib/libregex.a(regcomp.o)
 .data          0x01058ba8       0xd8 /SDK/local/newlib/lib/libregex.a(regerror.o)
 .data          0x01058c80        0x0 /SDK/local/newlib/lib/libregex.a(regexec.o)
 .data          0x01058c80        0x0 /SDK/local/newlib/lib/libregex.a(regfree.o)
 .data          0x01058c80        0x0 /GCC/lib/gcc/ppc-amigaos/4.2.4/newlib/lib/libstdc++.a(functexcept.o)
 .data          0x01058c80        0x0 /GCC/lib/gcc/ppc-amigaos/4.2.4/newlib/lib/libstdc++.a(ios_failure.o)
 .data          0x01058c80        0x0 /GCC/lib/gcc/ppc-amigaos/4.2.4/newlib/lib/libstdc++.a(stdexcept.o)
 .data          0x01058c80        0x0 /GCC/lib/gcc/ppc-amigaos/4.2.4/newlib/lib/libstdc++.a(tree.o)
 .data          0x01058c80        0x0 /GCC/lib/gcc/ppc-amigaos/4.2.4/newlib/lib/libstdc++.a(string-inst.o)
 .data          0x01058c80        0x0 /GCC/lib/gcc/ppc-amigaos/4.2.4/newlib/lib/libstdc++.a(del_op.o)
 .data          0x01058c80        0x0 /GCC/lib/gcc/ppc-amigaos/4.2.4/newlib/lib/libstdc++.a(del_opv.o)
 .data          0x01058c80        0x0 /GCC/lib/gcc/ppc-amigaos/4.2.4/newlib/lib/libstdc++.a(eh_alloc.o)
 .data          0x01058c80        0x0 /GCC/lib/gcc/ppc-amigaos/4.2.4/newlib/lib/libstdc++.a(eh_catch.o)
 .data          0x01058c80        0x0 /GCC/lib/gcc/ppc-amigaos/4.2.4/newlib/lib/libstdc++.a(eh_exception.o)
 .data          0x01058c80        0x0 /GCC/lib/gcc/ppc-amigaos/4.2.4/newlib/lib/libstdc++.a(eh_globals.o)
 .data          0x01058c80        0x0 /GCC/lib/gcc/ppc-amigaos/4.2.4/newlib/lib/libstdc++.a(eh_personality.o)
 .data          0x01058c80        0x0 /GCC/lib/gcc/ppc-amigaos/4.2.4/newlib/lib/libstdc++.a(eh_terminate.o)
 .data          0x01058c80        0x0 /GCC/lib/gcc/ppc-amigaos/4.2.4/newlib/lib/libstdc++.a(eh_term_handler.o)
 .data          0x01058c80        0x0 /GCC/lib/gcc/ppc-amigaos/4.2.4/newlib/lib/libstdc++.a(eh_throw.o)
 .data          0x01058c80        0x0 /GCC/lib/gcc/ppc-amigaos/4.2.4/newlib/lib/libstdc++.a(eh_unex_handler.o)
 .data          0x01058c80        0x0 /GCC/lib/gcc/ppc-amigaos/4.2.4/newlib/lib/libstdc++.a(new_handler.o)
 .data          0x01058c80        0x0 /GCC/lib/gcc/ppc-amigaos/4.2.4/newlib/lib/libstdc++.a(new_op.o)
 .data          0x01058c80        0x0 /GCC/lib/gcc/ppc-amigaos/4.2.4/newlib/lib/libstdc++.a(new_opv.o)
 .data          0x01058c80        0x0 /GCC/lib/gcc/ppc-amigaos/4.2.4/newlib/lib/libstdc++.a(tinfo.o)
 .data          0x01058c80        0x0 /GCC/lib/gcc/ppc-amigaos/4.2.4/newlib/lib/libstdc++.a(vterminate.o)
 .data          0x01058c80        0x0 /GCC/lib/gcc/ppc-amigaos/4.2.4/newlib/lib/libstdc++.a(cp-demangle.o)
 .data          0x01058c80        0x0 /GCC/lib/gcc/ppc-amigaos/4.2.4/newlib/lib/libstdc++.a(eh_call.o)
 .data          0x01058c80        0x0 /GCC/lib/gcc/ppc-amigaos/4.2.4/newlib/lib/libstdc++.a(eh_type.o)
 .data          0x01058c80        0x0 /GCC/lib/gcc/ppc-amigaos/4.2.4/newlib/lib/libgcc_eh.a(unwind-sjlj.o)
 .data          0x01058c80        0x0 /SDK/newlib/lib/libc.a(lib_a-ctype_.o)
 .data          0x01058c80        0x0 /SDK/newlib/lib/libc.a(stub_abort.o)
 .data          0x01058c80        0x0 /SDK/newlib/lib/libc.a(stub_accept.o)
 .data          0x01058c80        0x0 /SDK/newlib/lib/libc.a(stub_access.o)
 .data          0x01058c80        0x0 /SDK/newlib/lib/libc.a(stub___assert.o)
 .data          0x01058c80        0x0 /SDK/newlib/lib/libc.a(stub_atoi.o)
 .data          0x01058c80        0x0 /SDK/newlib/lib/libc.a(stub_bind.o)
 .data          0x01058c80        0x0 /SDK/newlib/lib/libc.a(stub_calloc.o)
 .data          0x01058c80        0x0 /SDK/newlib/lib/libc.a(stub_close.o)
 .data          0x01058c80        0x0 /SDK/newlib/lib/libc.a(stub_connect.o)
 .data          0x01058c80        0x0 /SDK/newlib/lib/libc.a(stub___errno.o)
 .data          0x01058c80        0x0 /SDK/newlib/lib/libc.a(stub_fclose.o)
 .data          0x01058c80        0x0 /SDK/newlib/lib/libc.a(stub_fcntl.o)
 .data          0x01058c80        0x0 /SDK/newlib/lib/libc.a(stub_feof.o)
 .data          0x01058c80        0x0 /SDK/newlib/lib/libc.a(stub_fflush.o)
 .data          0x01058c80        0x0 /SDK/newlib/lib/libc.a(stub_fgets.o)
 .data          0x01058c80        0x0 /SDK/newlib/lib/libc.a(stub_fmod.o)
 .data          0x01058c80        0x0 /SDK/newlib/lib/libc.a(stub_fopen.o)
 .data          0x01058c80        0x0 /SDK/newlib/lib/libc.a(stub_fprintf.o)
 .data          0x01058c80        0x0 /SDK/newlib/lib/libc.a(stub_fputc.o)
 .data          0x01058c80        0x0 /SDK/newlib/lib/libc.a(stub_fputs.o)
 .data          0x01058c80        0x0 /SDK/newlib/lib/libc.a(stub_fread.o)
 .data          0x01058c80        0x0 /SDK/newlib/lib/libc.a(stub_free.o)
 .data          0x01058c80        0x0 /SDK/newlib/lib/libc.a(stub_fseek.o)
 .data          0x01058c80        0x0 /SDK/newlib/lib/libc.a(stub_fstat.o)
 .data          0x01058c80        0x0 /SDK/newlib/lib/libc.a(stub_ftell.o)
 .data          0x01058c80        0x0 /SDK/newlib/lib/libc.a(stub_ftruncate.o)
 .data          0x01058c80        0x0 /SDK/newlib/lib/libc.a(stub_fwrite.o)
 .data          0x01058c80        0x0 /SDK/newlib/lib/libc.a(stub_getenv.o)
 .data          0x01058c80        0x0 /SDK/newlib/lib/libc.a(stub_gethostbyaddr.o)
 .data          0x01058c80        0x0 /SDK/newlib/lib/libc.a(stub_gethostbyname.o)
 .data          0x01058c80        0x0 /SDK/newlib/lib/libc.a(stub_gethostname.o)
 .data          0x01058c80        0x0 /SDK/newlib/lib/libc.a(stub_getpid.o)
 .data          0x01058c80        0x0 /SDK/newlib/lib/libc.a(stub_getpwnam.o)
 .data          0x01058c80        0x0 /SDK/newlib/lib/libc.a(stub_getpwuid.o)
 .data          0x01058c80        0x0 /SDK/newlib/lib/libc.a(stub___getreent.o)
 .data          0x01058c80        0x0 /SDK/newlib/lib/libc.a(stub_getservbyname.o)
 .data          0x01058c80        0x0 /SDK/newlib/lib/libc.a(stub_getuid.o)
 .data          0x01058c80        0x0 /SDK/newlib/lib/libc.a(stub_gmtime.o)
 .data          0x01058c80        0x0 /SDK/newlib/lib/libc.a(stub___h_errno.o)
 .data          0x01058c80        0x0 /SDK/newlib/lib/libc.a(stub_hstrerror.o)
 .data          0x01058c80        0x0 /SDK/newlib/lib/libc.a(stub_listen.o)
 .data          0x01058c80        0x0 /SDK/newlib/lib/libc.a(stub_localeconv.o)
 .data          0x01058c80        0x0 /SDK/newlib/lib/libc.a(stub_localtime.o)
 .data          0x01058c80        0x0 /SDK/newlib/lib/libc.a(stub_lseek.o)
 .data          0x01058c80        0x0 /SDK/newlib/lib/libc.a(stub_lstat.o)
 .data          0x01058c80        0x0 /SDK/newlib/lib/libc.a(stub_malloc.o)
 .data          0x01058c80        0x0 /SDK/newlib/lib/libc.a(stub_memchr.o)
 .data          0x01058c80        0x0 /SDK/newlib/lib/libc.a(stub_memcmp.o)
 .data          0x01058c80        0x0 /SDK/newlib/lib/libc.a(stub_memcpy.o)
 .data          0x01058c80        0x0 /SDK/newlib/lib/libc.a(stub_memmove.o)
 .data          0x01058c80        0x0 /SDK/newlib/lib/libc.a(stub_memset.o)
 .data          0x01058c80        0x0 /SDK/newlib/lib/libc.a(stub_mktime.o)
 .data          0x01058c80        0x0 /SDK/newlib/lib/libc.a(stub___NewlibCall.o)
 .data          0x01058c80        0x0 /SDK/newlib/lib/libc.a(stub_open.o)
 .data          0x01058c80        0x0 /SDK/newlib/lib/libc.a(stub_perror.o)
 .data          0x01058c80        0x0 /SDK/newlib/lib/libc.a(stub_printf.o)
 .data          0x01058c80        0x0 /SDK/newlib/lib/libc.a(stub_putchar.o)
 .data          0x01058c80        0x0 /SDK/newlib/lib/libc.a(stub_puts.o)
 .data          0x01058c80        0x0 /SDK/newlib/lib/libc.a(stub_rand.o)
 .data          0x01058c80        0x0 /SDK/newlib/lib/libc.a(stub_read.o)
 .data          0x01058c80        0x0 /SDK/newlib/lib/libc.a(stub_realloc.o)
 .data          0x01058c80        0x0 /SDK/newlib/lib/libc.a(stub_recv.o)
 .data          0x01058c80        0x0 /SDK/newlib/lib/libc.a(stub_select.o)
 .data          0x01058c80        0x0 /SDK/newlib/lib/libc.a(stub_send.o)
 .data          0x01058c80        0x0 /SDK/newlib/lib/libc.a(stub_setlocale.o)
 .data          0x01058c80        0x0 /SDK/newlib/lib/libc.a(stub_setsockopt.o)
 .data          0x01058c80        0x0 /SDK/newlib/lib/libc.a(stub_shutdown.o)
 .data          0x01058c80        0x0 /SDK/newlib/lib/libc.a(stub_signal.o)
 .data          0x01058c80        0x0 /SDK/newlib/lib/libc.a(stub_snprintf.o)
 .data          0x01058c80        0x0 /SDK/newlib/lib/libc.a(stub_socket.o)
 .data          0x01058c80        0x0 /SDK/newlib/lib/libc.a(stub_sprintf.o)
 .data          0x01058c80        0x0 /SDK/newlib/lib/libc.a(stub___srget.o)
 .data          0x01058c80        0x0 /SDK/newlib/lib/libc.a(stub_sscanf.o)
 .data          0x01058c80        0x0 /SDK/newlib/lib/libc.a(stub_stat.o)
 .data          0x01058c80        0x0 /SDK/newlib/lib/libc.a(stub_strcat.o)
 .data          0x01058c80        0x0 /SDK/newlib/lib/libc.a(stub_strchr.o)
 .data          0x01058c80        0x0 /SDK/newlib/lib/libc.a(stub_strcmp.o)
 .data          0x01058c80        0x0 /SDK/newlib/lib/libc.a(stub_strcpy.o)
 .data          0x01058c80        0x0 /SDK/newlib/lib/libc.a(stub_strdup.o)
 .data          0x01058c80        0x0 /SDK/newlib/lib/libc.a(stub_strerror.o)
 .data          0x01058c80        0x0 /SDK/newlib/lib/libc.a(stub_strftime.o)
 .data          0x01058c80        0x0 /SDK/newlib/lib/libc.a(stub_strlen.o)
 .data          0x01058c80        0x0 /SDK/newlib/lib/libc.a(stub_strncasecmp.o)
 .data          0x01058c80        0x0 /SDK/newlib/lib/libc.a(stub_strncmp.o)
 .data          0x01058c80        0x0 /SDK/newlib/lib/libc.a(stub_strncpy.o)
 .data          0x01058c80        0x0 /SDK/newlib/lib/libc.a(stub_strpbrk.o)
 .data          0x01058c80        0x0 /SDK/newlib/lib/libc.a(stub_strrchr.o)
 .data          0x01058c80        0x0 /SDK/newlib/lib/libc.a(stub_strstr.o)
 .data          0x01058c80        0x0 /SDK/newlib/lib/libc.a(stub_strtod.o)
 .data          0x01058c80        0x0 /SDK/newlib/lib/libc.a(stub_strtol.o)
 .data          0x01058c80        0x0 /SDK/newlib/lib/libc.a(stub_strtoll.o)
 .data          0x01058c80        0x0 /SDK/newlib/lib/libc.a(stub_time.o)
 .data          0x01058c80        0x0 /SDK/newlib/lib/libc.a(stub_uname.o)
 .data          0x01058c80        0x0 /SDK/newlib/lib/libc.a(stub_vsnprintf.o)
 .data          0x01058c80        0x0 /SDK/newlib/lib/libc.a(stub_write.o)
 *(.gnu.linkonce.d.*personality*)

.got2           0x01058c80      0xb78
 .got2          0x01058c80      0x178 ../ipr/ipr.o
 .got2          0x01058df8       0x4c ../ipr/iprutil.o
 .got2          0x01058e44       0xc8 ../ipr/AttrGroups.o
 .got2          0x01058f0c       0xf4 ../cups/libcups.a(http.o)
 .got2          0x01059000       0x20 ../cups/libcups.a(http-addr.o)
 .got2          0x01059020       0x28 ../cups/libcups.a(http-addrlist.o)
 .got2          0x01059048      0x124 ../cups/libcups.a(http-support.o)
 .got2          0x0105916c      0x15c ../cups/libcups.a(ipp.o)
 .got2          0x010592c8       0x1c ../cups/libcups.a(langprintf.o)
 .got2          0x010592e4       0x70 ../cups/libcups.a(language.o)
 .got2          0x01059354        0x4 ../cups/libcups.a(md5.o)
 .got2          0x01059358       0x28 ../cups/libcups.a(request.o)
 .got2          0x01059380       0x1c ../cups/libcups.a(string.o)
 .got2          0x0105939c        0x4 ../cups/libcups.a(thread.o)
 .got2          0x010593a0        0x0 ../cups/libcups.a(transcode.o)
 .got2          0x010593a0       0x90 ../cups/libcups.a(usersys.o)
 .got2          0x01059430       0x10 ../cups/libcups.a(array.o)
 .got2          0x01059440       0x38 ../cups/libcups.a(auth.o)
 .got2          0x01059478       0x54 ../cups/libcups.a(file.o)
 .got2          0x010594cc       0x30 ../cups/libcups.a(globals.o)
 .got2          0x010594fc      0x13c ../cups/libcups.a(ipp-support.o)
 .got2          0x01059638        0xc ../cups/libcups.a(md5passwd.o)
 .got2          0x01059644        0x0 /GCC/lib/gcc/ppc-amigaos/4.2.4/newlib/lib/libstdc++.a(del_op.o)
 .got2          0x01059644        0x0 /GCC/lib/gcc/ppc-amigaos/4.2.4/newlib/lib/libstdc++.a(del_opv.o)
 .got2          0x01059644       0x14 /GCC/lib/gcc/ppc-amigaos/4.2.4/newlib/lib/libstdc++.a(eh_alloc.o)
 .got2          0x01059658        0xc /GCC/lib/gcc/ppc-amigaos/4.2.4/newlib/lib/libstdc++.a(eh_catch.o)
 .got2          0x01059664       0x10 /GCC/lib/gcc/ppc-amigaos/4.2.4/newlib/lib/libstdc++.a(eh_exception.o)
 .got2          0x01059674        0x4 /GCC/lib/gcc/ppc-amigaos/4.2.4/newlib/lib/libstdc++.a(eh_globals.o)
 .got2          0x01059678       0x24 /GCC/lib/gcc/ppc-amigaos/4.2.4/newlib/lib/libstdc++.a(eh_personality.o)
 .got2          0x0105969c       0x14 /GCC/lib/gcc/ppc-amigaos/4.2.4/newlib/lib/libstdc++.a(eh_terminate.o)
 .got2          0x010596b0        0x0 /GCC/lib/gcc/ppc-amigaos/4.2.4/newlib/lib/libstdc++.a(eh_term_handler.o)
 .got2          0x010596b0        0xc /GCC/lib/gcc/ppc-amigaos/4.2.4/newlib/lib/libstdc++.a(eh_throw.o)
 .got2          0x010596bc        0x0 /GCC/lib/gcc/ppc-amigaos/4.2.4/newlib/lib/libstdc++.a(eh_unex_handler.o)
 .got2          0x010596bc        0xc /GCC/lib/gcc/ppc-amigaos/4.2.4/newlib/lib/libstdc++.a(new_handler.o)
 .got2          0x010596c8       0x1c /GCC/lib/gcc/ppc-amigaos/4.2.4/newlib/lib/libstdc++.a(new_op.o)
 .got2          0x010596e4        0xc /GCC/lib/gcc/ppc-amigaos/4.2.4/newlib/lib/libstdc++.a(new_opv.o)
 .got2          0x010596f0       0x20 /GCC/lib/gcc/ppc-amigaos/4.2.4/newlib/lib/libstdc++.a(tinfo.o)
 .got2          0x01059710       0x24 /GCC/lib/gcc/ppc-amigaos/4.2.4/newlib/lib/libstdc++.a(vterminate.o)
 .got2          0x01059734       0xc0 /GCC/lib/gcc/ppc-amigaos/4.2.4/newlib/lib/libstdc++.a(cp-demangle.o)
 .got2          0x010597f4        0x0 /GCC/lib/gcc/ppc-amigaos/4.2.4/newlib/lib/libstdc++.a(eh_call.o)
 .got2          0x010597f4        0x0 /GCC/lib/gcc/ppc-amigaos/4.2.4/newlib/lib/libstdc++.a(eh_type.o)
 .got2          0x010597f4        0x4 /GCC/lib/gcc/ppc-amigaos/4.2.4/newlib/lib/libgcc_eh.a(unwind-sjlj.o)

.fixup          0x010597f8     0x20b0
 .fixup         0x010597f8       0x28 ../ipr/ipr.o
 .fixup         0x01059820      0x1f4 ../ipr/iprutil.o
 .fixup         0x01059a14       0x44 ../ipr/AttrGroups.o
 .fixup         0x01059a58       0xa8 ../cups/libcups.a(http.o)
 .fixup         0x01059b00       0x90 ../cups/libcups.a(http-support.o)
 .fixup         0x01059b90       0x30 ../cups/libcups.a(ipp.o)
 .fixup         0x01059bc0      0x428 ../cups/libcups.a(language.o)
 .fixup         0x01059fe8     0x14e4 ../cups/libcups.a(ipp-support.o)
 .fixup         0x0105b4cc       0x34 /GCC/lib/gcc/ppc-amigaos/4.2.4/newlib/lib/libstdc++.a(eh_exception.o)
 .fixup         0x0105b500        0x4 /GCC/lib/gcc/ppc-amigaos/4.2.4/newlib/lib/libstdc++.a(eh_term_handler.o)
 .fixup         0x0105b504        0x4 /GCC/lib/gcc/ppc-amigaos/4.2.4/newlib/lib/libstdc++.a(eh_unex_handler.o)
 .fixup         0x0105b508       0x1c /GCC/lib/gcc/ppc-amigaos/4.2.4/newlib/lib/libstdc++.a(new_handler.o)
 .fixup         0x0105b524        0x4 /GCC/lib/gcc/ppc-amigaos/4.2.4/newlib/lib/libstdc++.a(new_op.o)
 .fixup         0x0105b528        0x4 /GCC/lib/gcc/ppc-amigaos/4.2.4/newlib/lib/libstdc++.a(new_opv.o)
 .fixup         0x0105b52c       0xf8 /GCC/lib/gcc/ppc-amigaos/4.2.4/newlib/lib/libstdc++.a(tinfo.o)
 .fixup         0x0105b624        0x4 /GCC/lib/gcc/ppc-amigaos/4.2.4/newlib/lib/libstdc++.a(vterminate.o)
 .fixup         0x0105b628      0x280 /GCC/lib/gcc/ppc-amigaos/4.2.4/newlib/lib/libstdc++.a(cp-demangle.o)

.data1
 *(.data1)

.got
 *(.got)

.sdata          0x0105b8a8       0x68
                0x010638a8                _SDA_BASE_ = (. + 0x8000)
 *(.sdata .sdata.* .gnu.linkonce.s.*)
 .sdata         0x0105b8a8        0x4 ipp_dev.o
                0x0105b8a8                SAS_Hack
 .sdata         0x0105b8ac        0xc ../ipr/ipr.o
                0x0105b8b4                g_options
                0x0105b8b0                IPP_PRINTER_ENV
                0x0105b8ac                userEnv
 .sdata         0x0105b8b8       0x1c ../ipr/iprutil.o
                0x0105b8c0                IPR_OPT_TRACE
                0x0105b8b8                IPR_OPT_VERBOSE
                0x0105b8bc                IPR_OPT_CHUNKING
                0x0105b8c8                IPR_OPT_TRACEFILES
                0x0105b8c4                IPR_OPT_NOSEND
                0x0105b8d0                IPR_OPT_VALIDATE_JOB
                0x0105b8cc                IPR_OPT_TIMEOUT
 .sdata._ZTI10AttrGroups
                0x0105b8d4        0x8 ../ipr/AttrGroups.o
                0x0105b8d4                typeinfo for AttrGroups
 .sdata._ZNSs4nposE
                0x0105b8dc        0x4 /GCC/lib/gcc/ppc-amigaos/4.2.4/newlib/lib/libstdc++.a(string-inst.o)
                0x0105b8dc                std::string::npos
 .sdata._ZNSs4_Rep11_S_max_sizeE
                0x0105b8e0        0x4 /GCC/lib/gcc/ppc-amigaos/4.2.4/newlib/lib/libstdc++.a(string-inst.o)
                0x0105b8e0                std::string::_Rep::_S_max_size
 .sdata._ZNSs4_Rep11_S_terminalE
                0x0105b8e4        0x1 /GCC/lib/gcc/ppc-amigaos/4.2.4/newlib/lib/libstdc++.a(string-inst.o)
                0x0105b8e4                std::string::_Rep::_S_terminal
 *fill*         0x0105b8e5        0x3 00
 .sdata._ZTISt9exception
                0x0105b8e8        0x8 /GCC/lib/gcc/ppc-amigaos/4.2.4/newlib/lib/libstdc++.a(eh_exception.o)
                0x0105b8e8                typeinfo for std::exception
 .sdata._ZN10__cxxabiv119__terminate_handlerE
                0x0105b8f0        0x4 /GCC/lib/gcc/ppc-amigaos/4.2.4/newlib/lib/libstdc++.a(eh_term_handler.o)
                0x0105b8f0                __cxxabiv1::__terminate_handler
 .sdata._ZN10__cxxabiv120__unexpected_handlerE
                0x0105b8f4        0x4 /GCC/lib/gcc/ppc-amigaos/4.2.4/newlib/lib/libstdc++.a(eh_unex_handler.o)
                0x0105b8f4                __cxxabiv1::__unexpected_handler
 .sdata._ZSt7nothrow
                0x0105b8f8        0x1 /GCC/lib/gcc/ppc-amigaos/4.2.4/newlib/lib/libstdc++.a(new_handler.o)
                0x0105b8f8                std::nothrow
 *fill*         0x0105b8f9        0x3 00
 .sdata.DW.ref._ZTISt9bad_alloc
                0x0105b8fc        0x4 /GCC/lib/gcc/ppc-amigaos/4.2.4/newlib/lib/libstdc++.a(new_op.o)
                0x0105b8fc                DW.ref._ZTISt9bad_alloc
 .sdata._ZTISt9type_info
                0x0105b900        0x8 /GCC/lib/gcc/ppc-amigaos/4.2.4/newlib/lib/libstdc++.a(tinfo.o)
                0x0105b900                typeinfo for std::type_info
 .sdata.DW.ref._ZTISt9exception
                0x0105b908        0x4 /GCC/lib/gcc/ppc-amigaos/4.2.4/newlib/lib/libstdc++.a(vterminate.o)
                0x0105b908                DW.ref._ZTISt9exception
 .sdata         0x0105b90c        0x4 /SDK/newlib/lib/libc.a(lib_a-ctype_.o)
                0x0105b90c                __ctype_ptr
                0x0105b910                _edata = .
                0x0105b910                PROVIDE (edata, .)
                0x0105b910                __bss_start = .

.sbss           0x0105b910       0x18
 *(.dynsbss)
 *(.sbss .sbss.* .gnu.linkonce.sb.*)
 .sbss          0x0105b910        0x8 ipp_dev.o
                0x0105b910                NewlibBase
                0x0105b914                INewlib
 .sbss          0x0105b918        0x8 ../ipr/ipr.o
                0x0105b918                g_tmplFile
                0x0105b91c                wused
 .sbss._ZN79_GLOBAL__N_.._.._.._.._gcc_libstdc___v3_libsupc___eh_alloc.cc_00000000_0645BF6015emergency_mutexE
                0x0105b920        0x4 /GCC/lib/gcc/ppc-amigaos/4.2.4/newlib/lib/libstdc++.a(eh_alloc.o)
 .sbss.__new_handler
                0x0105b924        0x4 /GCC/lib/gcc/ppc-amigaos/4.2.4/newlib/lib/libstdc++.a(new_handler.o)
                0x0105b924                __new_handler
 *(.scommon)

.bss            0x0105b930     0x3c60
 *(.dynbss)
 *(.bss .bss.* .gnu.linkonce.b.*)
 .bss           0x0105b930        0x0 ipp_dev.o
 .bss           0x0105b930        0x0 dev_68k.o
 .bss           0x0105b930     0x200c ../ipr/ipr.o
                0x0105b93c                wbuffer
 .bss           0x0105d93c     0x1004 ../ipr/iprutil.o
 .bss           0x0105e940      0x400 ../ipr/AttrGroups.o
 .bss           0x0105ed40        0x4 ../cups/libcups.a(http.o)
 .bss           0x0105ed44        0x0 ../cups/libcups.a(http-addr.o)
 .bss           0x0105ed44        0x0 ../cups/libcups.a(http-addrlist.o)
 .bss           0x0105ed44        0x0 ../cups/libcups.a(http-support.o)
 .bss           0x0105ed44        0x8 ../cups/libcups.a(ipp.o)
 .bss           0x0105ed4c        0x0 ../cups/libcups.a(langprintf.o)
 .bss           0x0105ed4c        0x8 ../cups/libcups.a(language.o)
 .bss           0x0105ed54        0x0 ../cups/libcups.a(md5.o)
 .bss           0x0105ed54        0x0 ../cups/libcups.a(request.o)
 .bss           0x0105ed54        0x8 ../cups/libcups.a(string.o)
 .bss           0x0105ed5c        0x0 ../cups/libcups.a(thread.o)
 .bss           0x0105ed5c        0x0 ../cups/libcups.a(transcode.o)
 .bss           0x0105ed5c        0x0 ../cups/libcups.a(usersys.o)
 .bss           0x0105ed5c        0x0 ../cups/libcups.a(array.o)
 .bss           0x0105ed5c        0x0 ../cups/libcups.a(auth.o)
 .bss           0x0105ed5c        0x0 ../cups/libcups.a(file.o)
 .bss           0x0105ed5c        0x4 ../cups/libcups.a(globals.o)
 .bss           0x0105ed60        0x0 ../cups/libcups.a(ipp-support.o)
 .bss           0x0105ed60        0x0 ../cups/libcups.a(md5passwd.o)
 .bss           0x0105ed60        0x0 /SDK/local/newlib/lib/libz.a(crc32.o)
 .bss           0x0105ed60        0x0 /SDK/local/newlib/lib/libz.a(deflate.o)
 .bss           0x0105ed60        0x0 /SDK/local/newlib/lib/libz.a(inflate.o)
 .bss           0x0105ed60        0x0 /SDK/local/newlib/lib/libz.a(inftrees.o)
 .bss           0x0105ed60        0x0 /SDK/local/newlib/lib/libz.a(trees.o)
 .bss           0x0105ed60        0x0 /SDK/local/newlib/lib/libz.a(zutil.o)
 .bss           0x0105ed60        0x0 /SDK/local/newlib/lib/libz.a(adler32.o)
 .bss           0x0105ed60        0x0 /SDK/local/newlib/lib/libz.a(inffast.o)
 .bss           0x0105ed60        0xa /SDK/local/newlib/lib/libregex.a(regcomp.o)
 .bss           0x0105ed6a        0x0 /SDK/local/newlib/lib/libregex.a(regerror.o)
 .bss           0x0105ed6a        0x0 /SDK/local/newlib/lib/libregex.a(regexec.o)
 .bss           0x0105ed6a        0x0 /SDK/local/newlib/lib/libregex.a(regfree.o)
 .bss           0x0105ed6a        0x0 /GCC/lib/gcc/ppc-amigaos/4.2.4/newlib/lib/libstdc++.a(functexcept.o)
 .bss           0x0105ed6a        0x0 /GCC/lib/gcc/ppc-amigaos/4.2.4/newlib/lib/libstdc++.a(ios_failure.o)
 .bss           0x0105ed6a        0x0 /GCC/lib/gcc/ppc-amigaos/4.2.4/newlib/lib/libstdc++.a(stdexcept.o)
 .bss           0x0105ed6a        0x0 /GCC/lib/gcc/ppc-amigaos/4.2.4/newlib/lib/libstdc++.a(tree.o)
 .bss           0x0105ed6a        0x0 /GCC/lib/gcc/ppc-amigaos/4.2.4/newlib/lib/libstdc++.a(string-inst.o)
 *fill*         0x0105ed6a        0x2 00
 .bss._ZNSs4_Rep20_S_empty_rep_storageE
                0x0105ed6c       0x10 /GCC/lib/gcc/ppc-amigaos/4.2.4/newlib/lib/libstdc++.a(string-inst.o)
                0x0105ed6c                std::string::_Rep::_S_empty_rep_storage
 .bss           0x0105ed7c        0x0 /GCC/lib/gcc/ppc-amigaos/4.2.4/newlib/lib/libstdc++.a(del_op.o)
 .bss           0x0105ed7c        0x0 /GCC/lib/gcc/ppc-amigaos/4.2.4/newlib/lib/libstdc++.a(del_opv.o)
 .bss           0x0105ed7c        0x0 /GCC/lib/gcc/ppc-amigaos/4.2.4/newlib/lib/libstdc++.a(eh_alloc.o)
 .bss.emergency_used
                0x0105ed7c        0x4 /GCC/lib/gcc/ppc-amigaos/4.2.4/newlib/lib/libstdc++.a(eh_alloc.o)
 .bss.emergency_buffer
                0x0105ed80      0x800 /GCC/lib/gcc/ppc-amigaos/4.2.4/newlib/lib/libstdc++.a(eh_alloc.o)
 .bss           0x0105f580        0x0 /GCC/lib/gcc/ppc-amigaos/4.2.4/newlib/lib/libstdc++.a(eh_catch.o)
 .bss           0x0105f580        0x0 /GCC/lib/gcc/ppc-amigaos/4.2.4/newlib/lib/libstdc++.a(eh_exception.o)
 .bss           0x0105f580        0x0 /GCC/lib/gcc/ppc-amigaos/4.2.4/newlib/lib/libstdc++.a(eh_globals.o)
 .bss.eh_globals
                0x0105f580        0x8 /GCC/lib/gcc/ppc-amigaos/4.2.4/newlib/lib/libstdc++.a(eh_globals.o)
 .bss           0x0105f588        0x0 /GCC/lib/gcc/ppc-amigaos/4.2.4/newlib/lib/libstdc++.a(eh_personality.o)
 .bss           0x0105f588        0x0 /GCC/lib/gcc/ppc-amigaos/4.2.4/newlib/lib/libstdc++.a(eh_terminate.o)
 .bss           0x0105f588        0x0 /GCC/lib/gcc/ppc-amigaos/4.2.4/newlib/lib/libstdc++.a(eh_term_handler.o)
 .bss           0x0105f588        0x0 /GCC/lib/gcc/ppc-amigaos/4.2.4/newlib/lib/libstdc++.a(eh_throw.o)
 .bss           0x0105f588        0x0 /GCC/lib/gcc/ppc-amigaos/4.2.4/newlib/lib/libstdc++.a(eh_unex_handler.o)
 .bss           0x0105f588        0x0 /GCC/lib/gcc/ppc-amigaos/4.2.4/newlib/lib/libstdc++.a(new_handler.o)
 .bss           0x0105f588        0x0 /GCC/lib/gcc/ppc-amigaos/4.2.4/newlib/lib/libstdc++.a(new_op.o)
 .bss           0x0105f588        0x0 /GCC/lib/gcc/ppc-amigaos/4.2.4/newlib/lib/libstdc++.a(new_opv.o)
 .bss           0x0105f588        0x0 /GCC/lib/gcc/ppc-amigaos/4.2.4/newlib/lib/libstdc++.a(tinfo.o)
 .bss           0x0105f588        0x0 /GCC/lib/gcc/ppc-amigaos/4.2.4/newlib/lib/libstdc++.a(vterminate.o)
 .bss._ZZN9__gnu_cxx27__verbose_terminate_handlerEvE11terminating
                0x0105f588        0x1 /GCC/lib/gcc/ppc-amigaos/4.2.4/newlib/lib/libstdc++.a(vterminate.o)
 .bss           0x0105f589        0x0 /GCC/lib/gcc/ppc-amigaos/4.2.4/newlib/lib/libstdc++.a(cp-demangle.o)
 .bss           0x0105f589        0x0 /GCC/lib/gcc/ppc-amigaos/4.2.4/newlib/lib/libstdc++.a(eh_call.o)
 .bss           0x0105f589        0x0 /GCC/lib/gcc/ppc-amigaos/4.2.4/newlib/lib/libstdc++.a(eh_type.o)
 *fill*         0x0105f589        0x3 00
 .bss           0x0105f58c        0x4 /GCC/lib/gcc/ppc-amigaos/4.2.4/newlib/lib/libgcc_eh.a(unwind-sjlj.o)
 .bss           0x0105f590        0x0 /SDK/newlib/lib/libc.a(lib_a-ctype_.o)
 .bss           0x0105f590        0x0 /SDK/newlib/lib/libc.a(stub_abort.o)
 .bss           0x0105f590        0x0 /SDK/newlib/lib/libc.a(stub_accept.o)
 .bss           0x0105f590        0x0 /SDK/newlib/lib/libc.a(stub_access.o)
 .bss           0x0105f590        0x0 /SDK/newlib/lib/libc.a(stub___assert.o)
 .bss           0x0105f590        0x0 /SDK/newlib/lib/libc.a(stub_atoi.o)
 .bss           0x0105f590        0x0 /SDK/newlib/lib/libc.a(stub_bind.o)
 .bss           0x0105f590        0x0 /SDK/newlib/lib/libc.a(stub_calloc.o)
 .bss           0x0105f590        0x0 /SDK/newlib/lib/libc.a(stub_close.o)
 .bss           0x0105f590        0x0 /SDK/newlib/lib/libc.a(stub_connect.o)
 .bss           0x0105f590        0x0 /SDK/newlib/lib/libc.a(stub___errno.o)
 .bss           0x0105f590        0x0 /SDK/newlib/lib/libc.a(stub_fclose.o)
 .bss           0x0105f590        0x0 /SDK/newlib/lib/libc.a(stub_fcntl.o)
 .bss           0x0105f590        0x0 /SDK/newlib/lib/libc.a(stub_feof.o)
 .bss           0x0105f590        0x0 /SDK/newlib/lib/libc.a(stub_fflush.o)
 .bss           0x0105f590        0x0 /SDK/newlib/lib/libc.a(stub_fgets.o)
 .bss           0x0105f590        0x0 /SDK/newlib/lib/libc.a(stub_fmod.o)
 .bss           0x0105f590        0x0 /SDK/newlib/lib/libc.a(stub_fopen.o)
 .bss           0x0105f590        0x0 /SDK/newlib/lib/libc.a(stub_fprintf.o)
 .bss           0x0105f590        0x0 /SDK/newlib/lib/libc.a(stub_fputc.o)
 .bss           0x0105f590        0x0 /SDK/newlib/lib/libc.a(stub_fputs.o)
 .bss           0x0105f590        0x0 /SDK/newlib/lib/libc.a(stub_fread.o)
 .bss           0x0105f590        0x0 /SDK/newlib/lib/libc.a(stub_free.o)
 .bss           0x0105f590        0x0 /SDK/newlib/lib/libc.a(stub_fseek.o)
 .bss           0x0105f590        0x0 /SDK/newlib/lib/libc.a(stub_fstat.o)
 .bss           0x0105f590        0x0 /SDK/newlib/lib/libc.a(stub_ftell.o)
 .bss           0x0105f590        0x0 /SDK/newlib/lib/libc.a(stub_ftruncate.o)
 .bss           0x0105f590        0x0 /SDK/newlib/lib/libc.a(stub_fwrite.o)
 .bss           0x0105f590        0x0 /SDK/newlib/lib/libc.a(stub_getenv.o)
 .bss           0x0105f590        0x0 /SDK/newlib/lib/libc.a(stub_gethostbyaddr.o)
 .bss           0x0105f590        0x0 /SDK/newlib/lib/libc.a(stub_gethostbyname.o)
 .bss           0x0105f590        0x0 /SDK/newlib/lib/libc.a(stub_gethostname.o)
 .bss           0x0105f590        0x0 /SDK/newlib/lib/libc.a(stub_getpid.o)
 .bss           0x0105f590        0x0 /SDK/newlib/lib/libc.a(stub_getpwnam.o)
 .bss           0x0105f590        0x0 /SDK/newlib/lib/libc.a(stub_getpwuid.o)
 .bss           0x0105f590        0x0 /SDK/newlib/lib/libc.a(stub___getreent.o)
 .bss           0x0105f590        0x0 /SDK/newlib/lib/libc.a(stub_getservbyname.o)
 .bss           0x0105f590        0x0 /SDK/newlib/lib/libc.a(stub_getuid.o)
 .bss           0x0105f590        0x0 /SDK/newlib/lib/libc.a(stub_gmtime.o)
 .bss           0x0105f590        0x0 /SDK/newlib/lib/libc.a(stub___h_errno.o)
 .bss           0x0105f590        0x0 /SDK/newlib/lib/libc.a(stub_hstrerror.o)
 .bss           0x0105f590        0x0 /SDK/newlib/lib/libc.a(stub_listen.o)
 .bss           0x0105f590        0x0 /SDK/newlib/lib/libc.a(stub_localeconv.o)
 .bss           0x0105f590        0x0 /SDK/newlib/lib/libc.a(stub_localtime.o)
 .bss           0x0105f590        0x0 /SDK/newlib/lib/libc.a(stub_lseek.o)
 .bss           0x0105f590        0x0 /SDK/newlib/lib/libc.a(stub_lstat.o)
 .bss           0x0105f590        0x0 /SDK/newlib/lib/libc.a(stub_malloc.o)
 .bss           0x0105f590        0x0 /SDK/newlib/lib/libc.a(stub_memchr.o)
 .bss           0x0105f590        0x0 /SDK/newlib/lib/libc.a(stub_memcmp.o)
 .bss           0x0105f590        0x0 /SDK/newlib/lib/libc.a(stub_memcpy.o)
 .bss           0x0105f590        0x0 /SDK/newlib/lib/libc.a(stub_memmove.o)
 .bss           0x0105f590        0x0 /SDK/newlib/lib/libc.a(stub_memset.o)
 .bss           0x0105f590        0x0 /SDK/newlib/lib/libc.a(stub_mktime.o)
 .bss           0x0105f590        0x0 /SDK/newlib/lib/libc.a(stub___NewlibCall.o)
 .bss           0x0105f590        0x0 /SDK/newlib/lib/libc.a(stub_open.o)
 .bss           0x0105f590        0x0 /SDK/newlib/lib/libc.a(stub_perror.o)
 .bss           0x0105f590        0x0 /SDK/newlib/lib/libc.a(stub_printf.o)
 .bss           0x0105f590        0x0 /SDK/newlib/lib/libc.a(stub_putchar.o)
 .bss           0x0105f590        0x0 /SDK/newlib/lib/libc.a(stub_puts.o)
 .bss           0x0105f590        0x0 /SDK/newlib/lib/libc.a(stub_rand.o)
 .bss           0x0105f590        0x0 /SDK/newlib/lib/libc.a(stub_read.o)
 .bss           0x0105f590        0x0 /SDK/newlib/lib/libc.a(stub_realloc.o)
 .bss           0x0105f590        0x0 /SDK/newlib/lib/libc.a(stub_recv.o)
 .bss           0x0105f590        0x0 /SDK/newlib/lib/libc.a(stub_select.o)
 .bss           0x0105f590        0x0 /SDK/newlib/lib/libc.a(stub_send.o)
 .bss           0x0105f590        0x0 /SDK/newlib/lib/libc.a(stub_setlocale.o)
 .bss           0x0105f590        0x0 /SDK/newlib/lib/libc.a(stub_setsockopt.o)
 .bss           0x0105f590        0x0 /SDK/newlib/lib/libc.a(stub_shutdown.o)
 .bss           0x0105f590        0x0 /SDK/newlib/lib/libc.a(stub_signal.o)
 .bss           0x0105f590        0x0 /SDK/newlib/lib/libc.a(stub_snprintf.o)
 .bss           0x0105f590        0x0 /SDK/newlib/lib/libc.a(stub_socket.o)
 .bss           0x0105f590        0x0 /SDK/newlib/lib/libc.a(stub_sprintf.o)
 .bss           0x0105f590        0x0 /SDK/newlib/lib/libc.a(stub___srget.o)
 .bss           0x0105f590        0x0 /SDK/newlib/lib/libc.a(stub_sscanf.o)
 .bss           0x0105f590        0x0 /SDK/newlib/lib/libc.a(stub_stat.o)
 .bss           0x0105f590        0x0 /SDK/newlib/lib/libc.a(stub_strcat.o)
 .bss           0x0105f590        0x0 /SDK/newlib/lib/libc.a(stub_strchr.o)
 .bss           0x0105f590        0x0 /SDK/newlib/lib/libc.a(stub_strcmp.o)
 .bss           0x0105f590        0x0 /SDK/newlib/lib/libc.a(stub_strcpy.o)
 .bss           0x0105f590        0x0 /SDK/newlib/lib/libc.a(stub_strdup.o)
 .bss           0x0105f590        0x0 /SDK/newlib/lib/libc.a(stub_strerror.o)
 .bss           0x0105f590        0x0 /SDK/newlib/lib/libc.a(stub_strftime.o)
 .bss           0x0105f590        0x0 /SDK/newlib/lib/libc.a(stub_strlen.o)
 .bss           0x0105f590        0x0 /SDK/newlib/lib/libc.a(stub_strncasecmp.o)
 .bss           0x0105f590        0x0 /SDK/newlib/lib/libc.a(stub_strncmp.o)
 .bss           0x0105f590        0x0 /SDK/newlib/lib/libc.a(stub_strncpy.o)
 .bss           0x0105f590        0x0 /SDK/newlib/lib/libc.a(stub_strpbrk.o)
 .bss           0x0105f590        0x0 /SDK/newlib/lib/libc.a(stub_strrchr.o)
 .bss           0x0105f590        0x0 /SDK/newlib/lib/libc.a(stub_strstr.o)
 .bss           0x0105f590        0x0 /SDK/newlib/lib/libc.a(stub_strtod.o)
 .bss           0x0105f590        0x0 /SDK/newlib/lib/libc.a(stub_strtol.o)
 .bss           0x0105f590        0x0 /SDK/newlib/lib/libc.a(stub_strtoll.o)
 .bss           0x0105f590        0x0 /SDK/newlib/lib/libc.a(stub_time.o)
 .bss           0x0105f590        0x0 /SDK/newlib/lib/libc.a(stub_uname.o)
 .bss           0x0105f590        0x0 /SDK/newlib/lib/libc.a(stub_vsnprintf.o)
 .bss           0x0105f590        0x0 /SDK/newlib/lib/libc.a(stub_write.o)
 *(COMMON)
                0x0105f590                . = ALIGN ((. != 0x0)?0x10:0x1)
                0x0105f590                . = ALIGN (0x10)
                0x0105f590                . = ALIGN (0x10)
                0x0105f590                _end = .
                0x0105f590                PROVIDE (end, .)

.stab           0x00000000    0x144b4
 *(.stab)
 .stab          0x00000000     0x3810 ipp_dev.o
                               0x381c (size before relaxing)
 .stab          0x00003810      0x798 dev_68k.o
                                0xdbc (size before relaxing)
 .stab          0x00003fa8     0x3b28 ../ipr/ipr.o
                               0x3b34 (size before relaxing)
 .stab          0x00007ad0     0x2970 ../ipr/iprutil.o
                               0x297c (size before relaxing)
 .stab          0x0000a440     0xa074 ../ipr/AttrGroups.o
                               0xa080 (size before relaxing)

.stabstr        0x00000000    0x44a33
 *(.stabstr)
 .stabstr       0x00000000    0x44a33 ipp_dev.o

.stab.excl
 *(.stab.excl)

.stab.exclstr
 *(.stab.exclstr)

.stab.index
 *(.stab.index)

.stab.indexstr
 *(.stab.indexstr)

.comment        0x00000000      0xa3f
 *(.comment)
 .comment       0x00000000       0x2b ipp_dev.o
 .comment       0x0000002b       0x2b dev_68k.o
 .comment       0x00000056       0x2b ../ipr/ipr.o
 .comment       0x00000081       0x2b ../ipr/iprutil.o
 .comment       0x000000ac       0x2b ../ipr/AttrGroups.o
 .comment       0x000000d7       0x2b ../cups/libcups.a(http.o)
 .comment       0x00000102       0x2b ../cups/libcups.a(http-addr.o)
 .comment       0x0000012d       0x2b ../cups/libcups.a(http-addrlist.o)
 .comment       0x00000158       0x2b ../cups/libcups.a(http-support.o)
 .comment       0x00000183       0x2b ../cups/libcups.a(ipp.o)
 .comment       0x000001ae       0x2b ../cups/libcups.a(langprintf.o)
 .comment       0x000001d9       0x2b ../cups/libcups.a(language.o)
 .comment       0x00000204       0x2b ../cups/libcups.a(md5.o)
 .comment       0x0000022f       0x2b ../cups/libcups.a(request.o)
 .comment       0x0000025a       0x2b ../cups/libcups.a(string.o)
 .comment       0x00000285       0x2b ../cups/libcups.a(thread.o)
 .comment       0x000002b0       0x2b ../cups/libcups.a(transcode.o)
 .comment       0x000002db       0x2b ../cups/libcups.a(usersys.o)
 .comment       0x00000306       0x2b ../cups/libcups.a(array.o)
 .comment       0x00000331       0x2b ../cups/libcups.a(auth.o)
 .comment       0x0000035c       0x2b ../cups/libcups.a(file.o)
 .comment       0x00000387       0x2b ../cups/libcups.a(globals.o)
 .comment       0x000003b2       0x2b ../cups/libcups.a(ipp-support.o)
 .comment       0x000003dd       0x2b ../cups/libcups.a(md5passwd.o)
 .comment       0x00000408       0x2b /SDK/local/newlib/lib/libz.a(crc32.o)
 .comment       0x00000433       0x2b /SDK/local/newlib/lib/libz.a(deflate.o)
 .comment       0x0000045e       0x2b /SDK/local/newlib/lib/libz.a(inflate.o)
 .comment       0x00000489       0x2b /SDK/local/newlib/lib/libz.a(inftrees.o)
 .comment       0x000004b4       0x2b /SDK/local/newlib/lib/libz.a(trees.o)
 .comment       0x000004df       0x2b /SDK/local/newlib/lib/libz.a(zutil.o)
 .comment       0x0000050a       0x2b /SDK/local/newlib/lib/libz.a(adler32.o)
 .comment       0x00000535       0x2b /SDK/local/newlib/lib/libz.a(inffast.o)
 .comment       0x00000560       0x2b /SDK/local/newlib/lib/libregex.a(regcomp.o)
 .comment       0x0000058b       0x2b /SDK/local/newlib/lib/libregex.a(regerror.o)
 .comment       0x000005b6       0x2b /SDK/local/newlib/lib/libregex.a(regexec.o)
 .comment       0x000005e1       0x2b /SDK/local/newlib/lib/libregex.a(regfree.o)
 .comment       0x0000060c       0x2b /GCC/lib/gcc/ppc-amigaos/4.2.4/newlib/lib/libstdc++.a(functexcept.o)
 .comment       0x00000637       0x2b /GCC/lib/gcc/ppc-amigaos/4.2.4/newlib/lib/libstdc++.a(ios_failure.o)
 .comment       0x00000662       0x2b /GCC/lib/gcc/ppc-amigaos/4.2.4/newlib/lib/libstdc++.a(stdexcept.o)
 .comment       0x0000068d       0x2b /GCC/lib/gcc/ppc-amigaos/4.2.4/newlib/lib/libstdc++.a(tree.o)
 .comment       0x000006b8       0x2b /GCC/lib/gcc/ppc-amigaos/4.2.4/newlib/lib/libstdc++.a(string-inst.o)
 .comment       0x000006e3       0x2b /GCC/lib/gcc/ppc-amigaos/4.2.4/newlib/lib/libstdc++.a(del_op.o)
 .comment       0x0000070e       0x2b /GCC/lib/gcc/ppc-amigaos/4.2.4/newlib/lib/libstdc++.a(del_opv.o)
 .comment       0x00000739       0x2b /GCC/lib/gcc/ppc-amigaos/4.2.4/newlib/lib/libstdc++.a(eh_alloc.o)
 .comment       0x00000764       0x2b /GCC/lib/gcc/ppc-amigaos/4.2.4/newlib/lib/libstdc++.a(eh_catch.o)
 .comment       0x0000078f       0x2b /GCC/lib/gcc/ppc-amigaos/4.2.4/newlib/lib/libstdc++.a(eh_exception.o)
 .comment       0x000007ba       0x2b /GCC/lib/gcc/ppc-amigaos/4.2.4/newlib/lib/libstdc++.a(eh_globals.o)
 .comment       0x000007e5       0x2b /GCC/lib/gcc/ppc-amigaos/4.2.4/newlib/lib/libstdc++.a(eh_personality.o)
 .comment       0x00000810       0x2b /GCC/lib/gcc/ppc-amigaos/4.2.4/newlib/lib/libstdc++.a(eh_terminate.o)
 .comment       0x0000083b       0x2b /GCC/lib/gcc/ppc-amigaos/4.2.4/newlib/lib/libstdc++.a(eh_term_handler.o)
 .comment       0x00000866       0x2b /GCC/lib/gcc/ppc-amigaos/4.2.4/newlib/lib/libstdc++.a(eh_throw.o)
 .comment       0x00000891       0x2b /GCC/lib/gcc/ppc-amigaos/4.2.4/newlib/lib/libstdc++.a(eh_unex_handler.o)
 .comment       0x000008bc       0x2b /GCC/lib/gcc/ppc-amigaos/4.2.4/newlib/lib/libstdc++.a(new_handler.o)
 .comment       0x000008e7       0x2b /GCC/lib/gcc/ppc-amigaos/4.2.4/newlib/lib/libstdc++.a(new_op.o)
 .comment       0x00000912       0x2b /GCC/lib/gcc/ppc-amigaos/4.2.4/newlib/lib/libstdc++.a(new_opv.o)
 .comment       0x0000093d       0x2b /GCC/lib/gcc/ppc-amigaos/4.2.4/newlib/lib/libstdc++.a(tinfo.o)
 .comment       0x00000968       0x2b /GCC/lib/gcc/ppc-amigaos/4.2.4/newlib/lib/libstdc++.a(vterminate.o)
 .comment       0x00000993       0x2b /GCC/lib/gcc/ppc-amigaos/4.2.4/newlib/lib/libstdc++.a(cp-demangle.o)
 .comment       0x000009be       0x2b /GCC/lib/gcc/ppc-amigaos/4.2.4/newlib/lib/libstdc++.a(eh_call.o)
 .comment       0x000009e9       0x2b /GCC/lib/gcc/ppc-amigaos/4.2.4/newlib/lib/libstdc++.a(eh_type.o)
 .comment       0x00000a14       0x2b /GCC/lib/gcc/ppc-amigaos/4.2.4/newlib/lib/libgcc_eh.a(unwind-sjlj.o)

.debug
 *(.debug)

.line
 *(.line)

.debug_srcinfo
 *(.debug_srcinfo)

.debug_sfnames
 *(.debug_sfnames)

.debug_aranges  0x00000000      0xdd8
 *(.debug_aranges)
 .debug_aranges
                0x00000000       0x20 /SDK/local/newlib/lib/libregex.a(regcomp.o)
 .debug_aranges
                0x00000020       0x20 /SDK/local/newlib/lib/libregex.a(regerror.o)
 .debug_aranges
                0x00000040       0x20 /SDK/local/newlib/lib/libregex.a(regexec.o)
 .debug_aranges
                0x00000060       0x20 /SDK/local/newlib/lib/libregex.a(regfree.o)
 .debug_aranges
                0x00000080      0x100 /GCC/lib/gcc/ppc-amigaos/4.2.4/newlib/lib/libstdc++.a(functexcept.o)
 .debug_aranges
                0x00000180       0x50 /GCC/lib/gcc/ppc-amigaos/4.2.4/newlib/lib/libstdc++.a(ios_failure.o)
 .debug_aranges
                0x000001d0      0x160 /GCC/lib/gcc/ppc-amigaos/4.2.4/newlib/lib/libstdc++.a(stdexcept.o)
 .debug_aranges
                0x00000330       0x68 /GCC/lib/gcc/ppc-amigaos/4.2.4/newlib/lib/libstdc++.a(tree.o)
 .debug_aranges
                0x00000398      0x558 /GCC/lib/gcc/ppc-amigaos/4.2.4/newlib/lib/libstdc++.a(string-inst.o)
 .debug_aranges
                0x000008f0       0x28 /GCC/lib/gcc/ppc-amigaos/4.2.4/newlib/lib/libstdc++.a(del_op.o)
 .debug_aranges
                0x00000918       0x28 /GCC/lib/gcc/ppc-amigaos/4.2.4/newlib/lib/libstdc++.a(del_opv.o)
 .debug_aranges
                0x00000940       0x40 /GCC/lib/gcc/ppc-amigaos/4.2.4/newlib/lib/libstdc++.a(eh_alloc.o)
 .debug_aranges
                0x00000980       0x40 /GCC/lib/gcc/ppc-amigaos/4.2.4/newlib/lib/libstdc++.a(eh_catch.o)
 .debug_aranges
                0x000009c0       0x60 /GCC/lib/gcc/ppc-amigaos/4.2.4/newlib/lib/libstdc++.a(eh_exception.o)
 .debug_aranges
                0x00000a20       0x30 /GCC/lib/gcc/ppc-amigaos/4.2.4/newlib/lib/libstdc++.a(eh_globals.o)
 .debug_aranges
                0x00000a50       0x70 /GCC/lib/gcc/ppc-amigaos/4.2.4/newlib/lib/libstdc++.a(eh_personality.o)
 .debug_aranges
                0x00000ac0       0x50 /GCC/lib/gcc/ppc-amigaos/4.2.4/newlib/lib/libstdc++.a(eh_terminate.o)
 .debug_aranges
                0x00000b10       0x38 /GCC/lib/gcc/ppc-amigaos/4.2.4/newlib/lib/libstdc++.a(eh_throw.o)
 .debug_aranges
                0x00000b48       0x48 /GCC/lib/gcc/ppc-amigaos/4.2.4/newlib/lib/libstdc++.a(new_handler.o)
 .debug_aranges
                0x00000b90       0x28 /GCC/lib/gcc/ppc-amigaos/4.2.4/newlib/lib/libstdc++.a(new_op.o)
 .debug_aranges
                0x00000bb8       0x28 /GCC/lib/gcc/ppc-amigaos/4.2.4/newlib/lib/libstdc++.a(new_opv.o)
 .debug_aranges
                0x00000be0      0x140 /GCC/lib/gcc/ppc-amigaos/4.2.4/newlib/lib/libstdc++.a(tinfo.o)
 .debug_aranges
                0x00000d20       0x28 /GCC/lib/gcc/ppc-amigaos/4.2.4/newlib/lib/libstdc++.a(vterminate.o)
 .debug_aranges
                0x00000d48       0x20 /GCC/lib/gcc/ppc-amigaos/4.2.4/newlib/lib/libstdc++.a(cp-demangle.o)
 .debug_aranges
                0x00000d68       0x28 /GCC/lib/gcc/ppc-amigaos/4.2.4/newlib/lib/libstdc++.a(eh_call.o)
 .debug_aranges
                0x00000d90       0x28 /GCC/lib/gcc/ppc-amigaos/4.2.4/newlib/lib/libstdc++.a(eh_type.o)
 .debug_aranges
                0x00000db8       0x20 /GCC/lib/gcc/ppc-amigaos/4.2.4/newlib/lib/libgcc_eh.a(unwind-sjlj.o)

.debug_pubnames
                0x00000000     0x5501
 *(.debug_pubnames)
 .debug_pubnames
                0x00000000       0x1e /SDK/local/newlib/lib/libregex.a(regcomp.o)
 .debug_pubnames
                0x0000001e       0x1f /SDK/local/newlib/lib/libregex.a(regerror.o)
 .debug_pubnames
                0x0000003d       0x1e /SDK/local/newlib/lib/libregex.a(regexec.o)
 .debug_pubnames
                0x0000005b       0x1e /SDK/local/newlib/lib/libregex.a(regfree.o)
 .debug_pubnames
                0x00000079      0x395 /GCC/lib/gcc/ppc-amigaos/4.2.4/newlib/lib/libstdc++.a(functexcept.o)
 .debug_pubnames
                0x0000040e       0xea /GCC/lib/gcc/ppc-amigaos/4.2.4/newlib/lib/libstdc++.a(ios_failure.o)
 .debug_pubnames
                0x000004f8      0x5f6 /GCC/lib/gcc/ppc-amigaos/4.2.4/newlib/lib/libstdc++.a(stdexcept.o)
 .debug_pubnames
                0x00000aee       0xfd /GCC/lib/gcc/ppc-amigaos/4.2.4/newlib/lib/libstdc++.a(tree.o)
 .debug_pubnames
                0x00000beb     0x3b81 /GCC/lib/gcc/ppc-amigaos/4.2.4/newlib/lib/libstdc++.a(string-inst.o)
 .debug_pubnames
                0x0000476c       0x26 /GCC/lib/gcc/ppc-amigaos/4.2.4/newlib/lib/libstdc++.a(del_op.o)
 .debug_pubnames
                0x00004792       0x29 /GCC/lib/gcc/ppc-amigaos/4.2.4/newlib/lib/libstdc++.a(del_opv.o)
 .debug_pubnames
                0x000047bb       0x48 /GCC/lib/gcc/ppc-amigaos/4.2.4/newlib/lib/libstdc++.a(eh_alloc.o)
 .debug_pubnames
                0x00004803       0x6f /GCC/lib/gcc/ppc-amigaos/4.2.4/newlib/lib/libstdc++.a(eh_catch.o)
 .debug_pubnames
                0x00004872      0x11a /GCC/lib/gcc/ppc-amigaos/4.2.4/newlib/lib/libstdc++.a(eh_exception.o)
 .debug_pubnames
                0x0000498c       0x43 /GCC/lib/gcc/ppc-amigaos/4.2.4/newlib/lib/libstdc++.a(eh_globals.o)
 .debug_pubnames
                0x000049cf       0x46 /GCC/lib/gcc/ppc-amigaos/4.2.4/newlib/lib/libstdc++.a(eh_personality.o)
 .debug_pubnames
                0x00004a15       0x75 /GCC/lib/gcc/ppc-amigaos/4.2.4/newlib/lib/libstdc++.a(eh_terminate.o)
 .debug_pubnames
                0x00004a8a       0x2a /GCC/lib/gcc/ppc-amigaos/4.2.4/newlib/lib/libstdc++.a(eh_term_handler.o)
 .debug_pubnames
                0x00004ab4       0x34 /GCC/lib/gcc/ppc-amigaos/4.2.4/newlib/lib/libstdc++.a(eh_throw.o)
 .debug_pubnames
                0x00004ae8       0x2b /GCC/lib/gcc/ppc-amigaos/4.2.4/newlib/lib/libstdc++.a(eh_unex_handler.o)
 .debug_pubnames
                0x00004b13       0xba /GCC/lib/gcc/ppc-amigaos/4.2.4/newlib/lib/libstdc++.a(new_handler.o)
 .debug_pubnames
                0x00004bcd       0x23 /GCC/lib/gcc/ppc-amigaos/4.2.4/newlib/lib/libstdc++.a(new_op.o)
 .debug_pubnames
                0x00004bf0       0x26 /GCC/lib/gcc/ppc-amigaos/4.2.4/newlib/lib/libstdc++.a(new_opv.o)
 .debug_pubnames
                0x00004c16      0x63b /GCC/lib/gcc/ppc-amigaos/4.2.4/newlib/lib/libstdc++.a(tinfo.o)
 .debug_pubnames
                0x00005251       0x32 /GCC/lib/gcc/ppc-amigaos/4.2.4/newlib/lib/libstdc++.a(vterminate.o)
 .debug_pubnames
                0x00005283       0x25 /GCC/lib/gcc/ppc-amigaos/4.2.4/newlib/lib/libstdc++.a(cp-demangle.o)
 .debug_pubnames
                0x000052a8       0x2b /GCC/lib/gcc/ppc-amigaos/4.2.4/newlib/lib/libstdc++.a(eh_call.o)
 .debug_pubnames
                0x000052d3       0x33 /GCC/lib/gcc/ppc-amigaos/4.2.4/newlib/lib/libstdc++.a(eh_type.o)
 .debug_pubnames
                0x00005306      0x1fb /GCC/lib/gcc/ppc-amigaos/4.2.4/newlib/lib/libgcc_eh.a(unwind-sjlj.o)

.debug_info     0x00000000    0x25cbc
 *(.debug_info .gnu.linkonce.wi.*)
 .debug_info    0x00000000     0x1505 /SDK/local/newlib/lib/libregex.a(regcomp.o)
 .debug_info    0x00001505      0x261 /SDK/local/newlib/lib/libregex.a(regerror.o)
 .debug_info    0x00001766     0x11c2 /SDK/local/newlib/lib/libregex.a(regexec.o)
 .debug_info    0x00002928      0x308 /SDK/local/newlib/lib/libregex.a(regfree.o)
 .debug_info    0x00002c30     0x4a83 /GCC/lib/gcc/ppc-amigaos/4.2.4/newlib/lib/libstdc++.a(functexcept.o)
 .debug_info    0x000076b3     0x3a7b /GCC/lib/gcc/ppc-amigaos/4.2.4/newlib/lib/libstdc++.a(ios_failure.o)
 .debug_info    0x0000b12e     0x3ad7 /GCC/lib/gcc/ppc-amigaos/4.2.4/newlib/lib/libstdc++.a(stdexcept.o)
 .debug_info    0x0000ec05     0x15b5 /GCC/lib/gcc/ppc-amigaos/4.2.4/newlib/lib/libstdc++.a(tree.o)
 .debug_info    0x000101ba     0xb159 /GCC/lib/gcc/ppc-amigaos/4.2.4/newlib/lib/libstdc++.a(string-inst.o)
 .debug_info    0x0001b313      0x427 /GCC/lib/gcc/ppc-amigaos/4.2.4/newlib/lib/libstdc++.a(del_op.o)
 .debug_info    0x0001b73a       0x7e /GCC/lib/gcc/ppc-amigaos/4.2.4/newlib/lib/libstdc++.a(del_opv.o)
 .debug_info    0x0001b7b8      0xb10 /GCC/lib/gcc/ppc-amigaos/4.2.4/newlib/lib/libstdc++.a(eh_alloc.o)
 .debug_info    0x0001c2c8      0x83c /GCC/lib/gcc/ppc-amigaos/4.2.4/newlib/lib/libstdc++.a(eh_catch.o)
 .debug_info    0x0001cb04      0x344 /GCC/lib/gcc/ppc-amigaos/4.2.4/newlib/lib/libstdc++.a(eh_exception.o)
 .debug_info    0x0001ce48      0x6b2 /GCC/lib/gcc/ppc-amigaos/4.2.4/newlib/lib/libstdc++.a(eh_globals.o)
 .debug_info    0x0001d4fa     0x1179 /GCC/lib/gcc/ppc-amigaos/4.2.4/newlib/lib/libstdc++.a(eh_personality.o)
 .debug_info    0x0001e673      0x78e /GCC/lib/gcc/ppc-amigaos/4.2.4/newlib/lib/libstdc++.a(eh_terminate.o)
 .debug_info    0x0001ee01      0x280 /GCC/lib/gcc/ppc-amigaos/4.2.4/newlib/lib/libstdc++.a(eh_term_handler.o)
 .debug_info    0x0001f081      0x484 /GCC/lib/gcc/ppc-amigaos/4.2.4/newlib/lib/libstdc++.a(eh_throw.o)
 .debug_info    0x0001f505      0x280 /GCC/lib/gcc/ppc-amigaos/4.2.4/newlib/lib/libstdc++.a(eh_unex_handler.o)
 .debug_info    0x0001f785      0x244 /GCC/lib/gcc/ppc-amigaos/4.2.4/newlib/lib/libstdc++.a(new_handler.o)
 .debug_info    0x0001f9c9      0x510 /GCC/lib/gcc/ppc-amigaos/4.2.4/newlib/lib/libstdc++.a(new_op.o)
 .debug_info    0x0001fed9       0x8c /GCC/lib/gcc/ppc-amigaos/4.2.4/newlib/lib/libstdc++.a(new_opv.o)
 .debug_info    0x0001ff65     0x1b8c /GCC/lib/gcc/ppc-amigaos/4.2.4/newlib/lib/libstdc++.a(tinfo.o)
 .debug_info    0x00021af1      0xbc2 /GCC/lib/gcc/ppc-amigaos/4.2.4/newlib/lib/libstdc++.a(vterminate.o)
 .debug_info    0x000226b3     0x21b8 /GCC/lib/gcc/ppc-amigaos/4.2.4/newlib/lib/libstdc++.a(cp-demangle.o)
 .debug_info    0x0002486b      0x691 /GCC/lib/gcc/ppc-amigaos/4.2.4/newlib/lib/libstdc++.a(eh_call.o)
 .debug_info    0x00024efc      0x2de /GCC/lib/gcc/ppc-amigaos/4.2.4/newlib/lib/libstdc++.a(eh_type.o)
 .debug_info    0x000251da      0xae2 /GCC/lib/gcc/ppc-amigaos/4.2.4/newlib/lib/libgcc_eh.a(unwind-sjlj.o)

.debug_abbrev   0x00000000     0x4c5e
 *(.debug_abbrev)
 .debug_abbrev  0x00000000      0x35a /SDK/local/newlib/lib/libregex.a(regcomp.o)
 .debug_abbrev  0x0000035a      0x13c /SDK/local/newlib/lib/libregex.a(regerror.o)
 .debug_abbrev  0x00000496      0x280 /SDK/local/newlib/lib/libregex.a(regexec.o)
 .debug_abbrev  0x00000716       0xde /SDK/local/newlib/lib/libregex.a(regfree.o)
 .debug_abbrev  0x000007f4      0x5f3 /GCC/lib/gcc/ppc-amigaos/4.2.4/newlib/lib/libstdc++.a(functexcept.o)
 .debug_abbrev  0x00000de7      0x5f0 /GCC/lib/gcc/ppc-amigaos/4.2.4/newlib/lib/libstdc++.a(ios_failure.o)
 .debug_abbrev  0x000013d7      0x50d /GCC/lib/gcc/ppc-amigaos/4.2.4/newlib/lib/libstdc++.a(stdexcept.o)
 .debug_abbrev  0x000018e4      0x3b4 /GCC/lib/gcc/ppc-amigaos/4.2.4/newlib/lib/libstdc++.a(tree.o)
 .debug_abbrev  0x00001c98      0x706 /GCC/lib/gcc/ppc-amigaos/4.2.4/newlib/lib/libstdc++.a(string-inst.o)
 .debug_abbrev  0x0000239e      0x121 /GCC/lib/gcc/ppc-amigaos/4.2.4/newlib/lib/libstdc++.a(del_op.o)
 .debug_abbrev  0x000024bf       0x77 /GCC/lib/gcc/ppc-amigaos/4.2.4/newlib/lib/libstdc++.a(del_opv.o)
 .debug_abbrev  0x00002536      0x327 /GCC/lib/gcc/ppc-amigaos/4.2.4/newlib/lib/libstdc++.a(eh_alloc.o)
 .debug_abbrev  0x0000285d      0x22b /GCC/lib/gcc/ppc-amigaos/4.2.4/newlib/lib/libstdc++.a(eh_catch.o)
 .debug_abbrev  0x00002a88      0x193 /GCC/lib/gcc/ppc-amigaos/4.2.4/newlib/lib/libstdc++.a(eh_exception.o)
 .debug_abbrev  0x00002c1b      0x19d /GCC/lib/gcc/ppc-amigaos/4.2.4/newlib/lib/libstdc++.a(eh_globals.o)
 .debug_abbrev  0x00002db8      0x45a /GCC/lib/gcc/ppc-amigaos/4.2.4/newlib/lib/libstdc++.a(eh_personality.o)
 .debug_abbrev  0x00003212      0x1fe /GCC/lib/gcc/ppc-amigaos/4.2.4/newlib/lib/libstdc++.a(eh_terminate.o)
 .debug_abbrev  0x00003410      0x114 /GCC/lib/gcc/ppc-amigaos/4.2.4/newlib/lib/libstdc++.a(eh_term_handler.o)
 .debug_abbrev  0x00003524      0x1c2 /GCC/lib/gcc/ppc-amigaos/4.2.4/newlib/lib/libstdc++.a(eh_throw.o)
 .debug_abbrev  0x000036e6      0x114 /GCC/lib/gcc/ppc-amigaos/4.2.4/newlib/lib/libstdc++.a(eh_unex_handler.o)
 .debug_abbrev  0x000037fa      0x199 /GCC/lib/gcc/ppc-amigaos/4.2.4/newlib/lib/libstdc++.a(new_handler.o)
 .debug_abbrev  0x00003993      0x1b1 /GCC/lib/gcc/ppc-amigaos/4.2.4/newlib/lib/libstdc++.a(new_op.o)
 .debug_abbrev  0x00003b44       0x86 /GCC/lib/gcc/ppc-amigaos/4.2.4/newlib/lib/libstdc++.a(new_opv.o)
 .debug_abbrev  0x00003bca      0x591 /GCC/lib/gcc/ppc-amigaos/4.2.4/newlib/lib/libstdc++.a(tinfo.o)
 .debug_abbrev  0x0000415b      0x25d /GCC/lib/gcc/ppc-amigaos/4.2.4/newlib/lib/libstdc++.a(vterminate.o)
 .debug_abbrev  0x000043b8      0x295 /GCC/lib/gcc/ppc-amigaos/4.2.4/newlib/lib/libstdc++.a(cp-demangle.o)
 .debug_abbrev  0x0000464d      0x1d7 /GCC/lib/gcc/ppc-amigaos/4.2.4/newlib/lib/libstdc++.a(eh_call.o)
 .debug_abbrev  0x00004824      0x133 /GCC/lib/gcc/ppc-amigaos/4.2.4/newlib/lib/libstdc++.a(eh_type.o)
 .debug_abbrev  0x00004957      0x307 /GCC/lib/gcc/ppc-amigaos/4.2.4/newlib/lib/libgcc_eh.a(unwind-sjlj.o)

.debug_line     0x00000000     0x8abb
 *(.debug_line)
 .debug_line    0x00000000      0x6e7 /SDK/local/newlib/lib/libregex.a(regcomp.o)
 .debug_line    0x000006e7       0xc7 /SDK/local/newlib/lib/libregex.a(regerror.o)
 .debug_line    0x000007ae      0x7dc /SDK/local/newlib/lib/libregex.a(regexec.o)
 .debug_line    0x00000f8a       0xc2 /SDK/local/newlib/lib/libregex.a(regfree.o)
 .debug_line    0x0000104c      0xb6e /GCC/lib/gcc/ppc-amigaos/4.2.4/newlib/lib/libstdc++.a(functexcept.o)
 .debug_line    0x00001bba      0x5b3 /GCC/lib/gcc/ppc-amigaos/4.2.4/newlib/lib/libstdc++.a(ios_failure.o)
 .debug_line    0x0000216d      0x8a7 /GCC/lib/gcc/ppc-amigaos/4.2.4/newlib/lib/libstdc++.a(stdexcept.o)
 .debug_line    0x00002a14      0x544 /GCC/lib/gcc/ppc-amigaos/4.2.4/newlib/lib/libstdc++.a(tree.o)
 .debug_line    0x00002f58     0x2736 /GCC/lib/gcc/ppc-amigaos/4.2.4/newlib/lib/libstdc++.a(string-inst.o)
 .debug_line    0x0000568e      0x14c /GCC/lib/gcc/ppc-amigaos/4.2.4/newlib/lib/libstdc++.a(del_op.o)
 .debug_line    0x000057da       0xc5 /GCC/lib/gcc/ppc-amigaos/4.2.4/newlib/lib/libstdc++.a(del_opv.o)
 .debug_line    0x0000589f      0x2f2 /GCC/lib/gcc/ppc-amigaos/4.2.4/newlib/lib/libstdc++.a(eh_alloc.o)
 .debug_line    0x00005b91      0x24a /GCC/lib/gcc/ppc-amigaos/4.2.4/newlib/lib/libstdc++.a(eh_catch.o)
 .debug_line    0x00005ddb      0x1ce /GCC/lib/gcc/ppc-amigaos/4.2.4/newlib/lib/libstdc++.a(eh_exception.o)
 .debug_line    0x00005fa9      0x1cd /GCC/lib/gcc/ppc-amigaos/4.2.4/newlib/lib/libstdc++.a(eh_globals.o)
 .debug_line    0x00006176      0x502 /GCC/lib/gcc/ppc-amigaos/4.2.4/newlib/lib/libstdc++.a(eh_personality.o)
 .debug_line    0x00006678      0x213 /GCC/lib/gcc/ppc-amigaos/4.2.4/newlib/lib/libstdc++.a(eh_terminate.o)
 .debug_line    0x0000688b      0x151 /GCC/lib/gcc/ppc-amigaos/4.2.4/newlib/lib/libstdc++.a(eh_term_handler.o)
 .debug_line    0x000069dc      0x1cf /GCC/lib/gcc/ppc-amigaos/4.2.4/newlib/lib/libstdc++.a(eh_throw.o)
 .debug_line    0x00006bab      0x151 /GCC/lib/gcc/ppc-amigaos/4.2.4/newlib/lib/libstdc++.a(eh_unex_handler.o)
 .debug_line    0x00006cfc      0x113 /GCC/lib/gcc/ppc-amigaos/4.2.4/newlib/lib/libstdc++.a(new_handler.o)
 .debug_line    0x00006e0f      0x1ba /GCC/lib/gcc/ppc-amigaos/4.2.4/newlib/lib/libstdc++.a(new_op.o)
 .debug_line    0x00006fc9      0x109 /GCC/lib/gcc/ppc-amigaos/4.2.4/newlib/lib/libstdc++.a(new_opv.o)
 .debug_line    0x000070d2      0x670 /GCC/lib/gcc/ppc-amigaos/4.2.4/newlib/lib/libstdc++.a(tinfo.o)
 .debug_line    0x00007742      0x249 /GCC/lib/gcc/ppc-amigaos/4.2.4/newlib/lib/libstdc++.a(vterminate.o)
 .debug_line    0x0000798b      0xbe8 /GCC/lib/gcc/ppc-amigaos/4.2.4/newlib/lib/libstdc++.a(cp-demangle.o)
 .debug_line    0x00008573      0x1b7 /GCC/lib/gcc/ppc-amigaos/4.2.4/newlib/lib/libstdc++.a(eh_call.o)
 .debug_line    0x0000872a      0x116 /GCC/lib/gcc/ppc-amigaos/4.2.4/newlib/lib/libstdc++.a(eh_type.o)
 .debug_line    0x00008840      0x27b /GCC/lib/gcc/ppc-amigaos/4.2.4/newlib/lib/libgcc_eh.a(unwind-sjlj.o)

.debug_frame    0x00000000     0x3bb4
 *(.debug_frame)
 .debug_frame   0x00000000      0x25c /SDK/local/newlib/lib/libregex.a(regcomp.o)
 .debug_frame   0x0000025c       0x38 /SDK/local/newlib/lib/libregex.a(regerror.o)
 .debug_frame   0x00000294      0x1ec /SDK/local/newlib/lib/libregex.a(regexec.o)
 .debug_frame   0x00000480       0x2c /SDK/local/newlib/lib/libregex.a(regfree.o)
 .debug_frame   0x000004ac      0x5c4 /GCC/lib/gcc/ppc-amigaos/4.2.4/newlib/lib/libstdc++.a(functexcept.o)
 .debug_frame   0x00000a70      0x13c /GCC/lib/gcc/ppc-amigaos/4.2.4/newlib/lib/libstdc++.a(ios_failure.o)
 .debug_frame   0x00000bac      0x55c /GCC/lib/gcc/ppc-amigaos/4.2.4/newlib/lib/libstdc++.a(stdexcept.o)
 .debug_frame   0x00001108       0xd4 /GCC/lib/gcc/ppc-amigaos/4.2.4/newlib/lib/libstdc++.a(tree.o)
 .debug_frame   0x000011dc     0x1474 /GCC/lib/gcc/ppc-amigaos/4.2.4/newlib/lib/libstdc++.a(string-inst.o)
 .debug_frame   0x00002650       0x28 /GCC/lib/gcc/ppc-amigaos/4.2.4/newlib/lib/libstdc++.a(del_op.o)
 .debug_frame   0x00002678       0x28 /GCC/lib/gcc/ppc-amigaos/4.2.4/newlib/lib/libstdc++.a(del_opv.o)
 .debug_frame   0x000026a0       0xc8 /GCC/lib/gcc/ppc-amigaos/4.2.4/newlib/lib/libstdc++.a(eh_alloc.o)
 .debug_frame   0x00002768       0xc4 /GCC/lib/gcc/ppc-amigaos/4.2.4/newlib/lib/libstdc++.a(eh_catch.o)
 .debug_frame   0x0000282c      0x110 /GCC/lib/gcc/ppc-amigaos/4.2.4/newlib/lib/libstdc++.a(eh_exception.o)
 .debug_frame   0x0000293c       0x50 /GCC/lib/gcc/ppc-amigaos/4.2.4/newlib/lib/libstdc++.a(eh_globals.o)
 .debug_frame   0x0000298c      0x1f0 /GCC/lib/gcc/ppc-amigaos/4.2.4/newlib/lib/libstdc++.a(eh_personality.o)
 .debug_frame   0x00002b7c      0x118 /GCC/lib/gcc/ppc-amigaos/4.2.4/newlib/lib/libstdc++.a(eh_terminate.o)
 .debug_frame   0x00002c94       0x68 /GCC/lib/gcc/ppc-amigaos/4.2.4/newlib/lib/libstdc++.a(eh_throw.o)
 .debug_frame   0x00002cfc       0xb0 /GCC/lib/gcc/ppc-amigaos/4.2.4/newlib/lib/libstdc++.a(new_handler.o)
 .debug_frame   0x00002dac       0x80 /GCC/lib/gcc/ppc-amigaos/4.2.4/newlib/lib/libstdc++.a(new_op.o)
 .debug_frame   0x00002e2c       0x80 /GCC/lib/gcc/ppc-amigaos/4.2.4/newlib/lib/libstdc++.a(new_opv.o)
 .debug_frame   0x00002eac      0x488 /GCC/lib/gcc/ppc-amigaos/4.2.4/newlib/lib/libstdc++.a(tinfo.o)
 .debug_frame   0x00003334       0x80 /GCC/lib/gcc/ppc-amigaos/4.2.4/newlib/lib/libstdc++.a(vterminate.o)
 .debug_frame   0x000033b4      0x544 /GCC/lib/gcc/ppc-amigaos/4.2.4/newlib/lib/libstdc++.a(cp-demangle.o)
 .debug_frame   0x000038f8       0x30 /GCC/lib/gcc/ppc-amigaos/4.2.4/newlib/lib/libstdc++.a(eh_call.o)
 .debug_frame   0x00003928       0x28 /GCC/lib/gcc/ppc-amigaos/4.2.4/newlib/lib/libstdc++.a(eh_type.o)
 .debug_frame   0x00003950      0x264 /GCC/lib/gcc/ppc-amigaos/4.2.4/newlib/lib/libgcc_eh.a(unwind-sjlj.o)

.debug_str      0x00000000     0x7bea
 *(.debug_str)
 .debug_str     0x00000000      0x3b2 /SDK/local/newlib/lib/libregex.a(regcomp.o)
                                0x492 (size before relaxing)
 .debug_str     0x000003b2       0x5d /SDK/local/newlib/lib/libregex.a(regerror.o)
                                0x181 (size before relaxing)
 .debug_str     0x0000040f      0x126 /SDK/local/newlib/lib/libregex.a(regexec.o)
                                0x33b (size before relaxing)
 .debug_str     0x00000535       0x12 /SDK/local/newlib/lib/libregex.a(regfree.o)
                                0x1ed (size before relaxing)
 .debug_str     0x00000547     0x2a92 /GCC/lib/gcc/ppc-amigaos/4.2.4/newlib/lib/libstdc++.a(functexcept.o)
                               0x2e43 (size before relaxing)
 .debug_str     0x00002fd9       0x73 /GCC/lib/gcc/ppc-amigaos/4.2.4/newlib/lib/libstdc++.a(ios_failure.o)
                               0x2abb (size before relaxing)
 .debug_str     0x0000304c       0x88 /GCC/lib/gcc/ppc-amigaos/4.2.4/newlib/lib/libstdc++.a(stdexcept.o)
                               0x1dd5 (size before relaxing)
 .debug_str     0x000030d4      0x424 /GCC/lib/gcc/ppc-amigaos/4.2.4/newlib/lib/libstdc++.a(tree.o)
                                0x9f4 (size before relaxing)
 .debug_str     0x000034f8     0x188b /GCC/lib/gcc/ppc-amigaos/4.2.4/newlib/lib/libstdc++.a(string-inst.o)
                               0x35ae (size before relaxing)
 .debug_str     0x00004d83       0x93 /GCC/lib/gcc/ppc-amigaos/4.2.4/newlib/lib/libstdc++.a(del_op.o)
                                0x1d9 (size before relaxing)
 .debug_str     0x00004e16       0x4c /GCC/lib/gcc/ppc-amigaos/4.2.4/newlib/lib/libstdc++.a(del_opv.o)
                                 0xcb (size before relaxing)
 .debug_str     0x00004e62      0x4ce /GCC/lib/gcc/ppc-amigaos/4.2.4/newlib/lib/libstdc++.a(eh_alloc.o)
                                0x72b (size before relaxing)
 .debug_str     0x00005330      0x10e /GCC/lib/gcc/ppc-amigaos/4.2.4/newlib/lib/libstdc++.a(eh_catch.o)
                                0x559 (size before relaxing)
 .debug_str     0x0000543e       0xa6 /GCC/lib/gcc/ppc-amigaos/4.2.4/newlib/lib/libstdc++.a(eh_exception.o)
                                0x1b4 (size before relaxing)
 .debug_str     0x000054e4       0x5e /GCC/lib/gcc/ppc-amigaos/4.2.4/newlib/lib/libstdc++.a(eh_globals.o)
                                0x4a6 (size before relaxing)
 .debug_str     0x00005542      0x407 /GCC/lib/gcc/ppc-amigaos/4.2.4/newlib/lib/libstdc++.a(eh_personality.o)
                                0x907 (size before relaxing)
 .debug_str     0x00005949      0x184 /GCC/lib/gcc/ppc-amigaos/4.2.4/newlib/lib/libstdc++.a(eh_terminate.o)
                                0x59d (size before relaxing)
 .debug_str     0x00005acd       0x3a /GCC/lib/gcc/ppc-amigaos/4.2.4/newlib/lib/libstdc++.a(eh_term_handler.o)
                                0x383 (size before relaxing)
 .debug_str     0x00005b07       0x90 /GCC/lib/gcc/ppc-amigaos/4.2.4/newlib/lib/libstdc++.a(eh_throw.o)
                                0x49b (size before relaxing)
 .debug_str     0x00005b97       0x3a /GCC/lib/gcc/ppc-amigaos/4.2.4/newlib/lib/libstdc++.a(eh_unex_handler.o)
                                0x385 (size before relaxing)
 .debug_str     0x00005bd1       0x9f /GCC/lib/gcc/ppc-amigaos/4.2.4/newlib/lib/libstdc++.a(new_handler.o)
                                0x17e (size before relaxing)
 .debug_str     0x00005c70       0x37 /GCC/lib/gcc/ppc-amigaos/4.2.4/newlib/lib/libstdc++.a(new_op.o)
                                0x217 (size before relaxing)
 .debug_str     0x00005ca7       0x48 /GCC/lib/gcc/ppc-amigaos/4.2.4/newlib/lib/libstdc++.a(new_opv.o)
                                 0xce (size before relaxing)
 .debug_str     0x00005cef      0xbdf /GCC/lib/gcc/ppc-amigaos/4.2.4/newlib/lib/libstdc++.a(tinfo.o)
                                0xd7f (size before relaxing)
 .debug_str     0x000068ce       0x91 /GCC/lib/gcc/ppc-amigaos/4.2.4/newlib/lib/libstdc++.a(vterminate.o)
                                0x419 (size before relaxing)
 .debug_str     0x0000695f      0xe4f /GCC/lib/gcc/ppc-amigaos/4.2.4/newlib/lib/libstdc++.a(cp-demangle.o)
                               0x101d (size before relaxing)
 .debug_str     0x000077ae       0x47 /GCC/lib/gcc/ppc-amigaos/4.2.4/newlib/lib/libstdc++.a(eh_call.o)
                                0x48a (size before relaxing)
 .debug_str     0x000077f5       0x4f /GCC/lib/gcc/ppc-amigaos/4.2.4/newlib/lib/libstdc++.a(eh_type.o)
                                0x3b0 (size before relaxing)
 .debug_str     0x00007844      0x3a6 /GCC/lib/gcc/ppc-amigaos/4.2.4/newlib/lib/libgcc_eh.a(unwind-sjlj.o)
                                0x61f (size before relaxing)

.debug_loc      0x00000000    0x12aff
 *(.debug_loc)
 .debug_loc     0x00000000     0x20b9 /SDK/local/newlib/lib/libregex.a(regcomp.o)
 .debug_loc     0x000020b9      0x1ff /SDK/local/newlib/lib/libregex.a(regerror.o)
 .debug_loc     0x000022b8     0x2add /SDK/local/newlib/lib/libregex.a(regexec.o)
 .debug_loc     0x00004d95       0x5b /SDK/local/newlib/lib/libregex.a(regfree.o)
 .debug_loc     0x00004df0      0x9a8 /GCC/lib/gcc/ppc-amigaos/4.2.4/newlib/lib/libstdc++.a(functexcept.o)
 .debug_loc     0x00005798      0x23e /GCC/lib/gcc/ppc-amigaos/4.2.4/newlib/lib/libstdc++.a(ios_failure.o)
 .debug_loc     0x000059d6      0xb0c /GCC/lib/gcc/ppc-amigaos/4.2.4/newlib/lib/libstdc++.a(stdexcept.o)
 .debug_loc     0x000064e2      0x718 /GCC/lib/gcc/ppc-amigaos/4.2.4/newlib/lib/libstdc++.a(tree.o)
 .debug_loc     0x00006bfa     0x5912 /GCC/lib/gcc/ppc-amigaos/4.2.4/newlib/lib/libstdc++.a(string-inst.o)
 .debug_loc     0x0000c50c       0x3d /GCC/lib/gcc/ppc-amigaos/4.2.4/newlib/lib/libstdc++.a(del_op.o)
 .debug_loc     0x0000c549       0x32 /GCC/lib/gcc/ppc-amigaos/4.2.4/newlib/lib/libstdc++.a(del_opv.o)
 .debug_loc     0x0000c57b      0x13e /GCC/lib/gcc/ppc-amigaos/4.2.4/newlib/lib/libstdc++.a(eh_alloc.o)
 .debug_loc     0x0000c6b9      0x1e6 /GCC/lib/gcc/ppc-amigaos/4.2.4/newlib/lib/libstdc++.a(eh_catch.o)
 .debug_loc     0x0000c89f      0x175 /GCC/lib/gcc/ppc-amigaos/4.2.4/newlib/lib/libstdc++.a(eh_exception.o)
 .debug_loc     0x0000ca14       0x3e /GCC/lib/gcc/ppc-amigaos/4.2.4/newlib/lib/libstdc++.a(eh_globals.o)
 .debug_loc     0x0000ca52      0xdf0 /GCC/lib/gcc/ppc-amigaos/4.2.4/newlib/lib/libstdc++.a(eh_personality.o)
 .debug_loc     0x0000d842      0x13a /GCC/lib/gcc/ppc-amigaos/4.2.4/newlib/lib/libstdc++.a(eh_terminate.o)
 .debug_loc     0x0000d97c      0x16b /GCC/lib/gcc/ppc-amigaos/4.2.4/newlib/lib/libstdc++.a(eh_throw.o)
 .debug_loc     0x0000dae7      0x118 /GCC/lib/gcc/ppc-amigaos/4.2.4/newlib/lib/libstdc++.a(new_handler.o)
 .debug_loc     0x0000dbff       0x69 /GCC/lib/gcc/ppc-amigaos/4.2.4/newlib/lib/libstdc++.a(new_op.o)
 .debug_loc     0x0000dc68       0x40 /GCC/lib/gcc/ppc-amigaos/4.2.4/newlib/lib/libstdc++.a(new_opv.o)
 .debug_loc     0x0000dca8     0x113b /GCC/lib/gcc/ppc-amigaos/4.2.4/newlib/lib/libstdc++.a(tinfo.o)
 .debug_loc     0x0000ede3       0xec /GCC/lib/gcc/ppc-amigaos/4.2.4/newlib/lib/libstdc++.a(vterminate.o)
 .debug_loc     0x0000eecf     0x351a /GCC/lib/gcc/ppc-amigaos/4.2.4/newlib/lib/libstdc++.a(cp-demangle.o)
 .debug_loc     0x000123e9       0x3d /GCC/lib/gcc/ppc-amigaos/4.2.4/newlib/lib/libstdc++.a(eh_call.o)
 .debug_loc     0x00012426       0x32 /GCC/lib/gcc/ppc-amigaos/4.2.4/newlib/lib/libstdc++.a(eh_type.o)
 .debug_loc     0x00012458      0x6a7 /GCC/lib/gcc/ppc-amigaos/4.2.4/newlib/lib/libgcc_eh.a(unwind-sjlj.o)

.debug_macinfo
 *(.debug_macinfo)

.debug_weaknames
 *(.debug_weaknames)

.debug_funcnames
 *(.debug_funcnames)

.debug_typenames
 *(.debug_typenames)

.debug_varnames
 *(.debug_varnames)

.debug_pubtypes
 *(.debug_pubtypes)

.debug_ranges   0x00000000     0x4af8
 *(.debug_ranges)
 .debug_ranges  0x00000000      0x570 /SDK/local/newlib/lib/libregex.a(regcomp.o)
 .debug_ranges  0x00000570       0x38 /SDK/local/newlib/lib/libregex.a(regerror.o)
 .debug_ranges  0x000005a8      0x270 /SDK/local/newlib/lib/libregex.a(regexec.o)
 .debug_ranges  0x00000818      0xae0 /GCC/lib/gcc/ppc-amigaos/4.2.4/newlib/lib/libstdc++.a(functexcept.o)
 .debug_ranges  0x000012f8      0x198 /GCC/lib/gcc/ppc-amigaos/4.2.4/newlib/lib/libstdc++.a(ios_failure.o)
 .debug_ranges  0x00001490      0x330 /GCC/lib/gcc/ppc-amigaos/4.2.4/newlib/lib/libstdc++.a(stdexcept.o)
 .debug_ranges  0x000017c0       0xc0 /GCC/lib/gcc/ppc-amigaos/4.2.4/newlib/lib/libstdc++.a(tree.o)
 .debug_ranges  0x00001880     0x2168 /GCC/lib/gcc/ppc-amigaos/4.2.4/newlib/lib/libstdc++.a(string-inst.o)
 .debug_ranges  0x000039e8       0x30 /GCC/lib/gcc/ppc-amigaos/4.2.4/newlib/lib/libstdc++.a(eh_alloc.o)
 .debug_ranges  0x00003a18       0x18 /GCC/lib/gcc/ppc-amigaos/4.2.4/newlib/lib/libstdc++.a(eh_catch.o)
 .debug_ranges  0x00003a30      0x100 /GCC/lib/gcc/ppc-amigaos/4.2.4/newlib/lib/libstdc++.a(eh_personality.o)
 .debug_ranges  0x00003b30       0x30 /GCC/lib/gcc/ppc-amigaos/4.2.4/newlib/lib/libstdc++.a(new_op.o)
 .debug_ranges  0x00003b60      0x2e0 /GCC/lib/gcc/ppc-amigaos/4.2.4/newlib/lib/libstdc++.a(tinfo.o)
 .debug_ranges  0x00003e40       0x70 /GCC/lib/gcc/ppc-amigaos/4.2.4/newlib/lib/libstdc++.a(vterminate.o)
 .debug_ranges  0x00003eb0      0xa80 /GCC/lib/gcc/ppc-amigaos/4.2.4/newlib/lib/libstdc++.a(cp-demangle.o)
 .debug_ranges  0x00004930      0x1c8 /GCC/lib/gcc/ppc-amigaos/4.2.4/newlib/lib/libgcc_eh.a(unwind-sjlj.o)

.gnu.attributes
 *(.gnu.attributes)

/DISCARD/
 *(.note.GNU-stack)
 *(.gnu_debuglink)
OUTPUT(ipp.device.debug elf32-amigaos)

Cross Reference Table

Symbol                                            File
AttrGroups::AttrGroups(_ipp_s*, ipp_tag_e)        ../ipr/AttrGroups.o
AttrGroups::AttrGroups(_ipp_s*, ipp_tag_e)        ../ipr/AttrGroups.o
                                                  ../ipr/ipr.o
AttrGroups::GetDateTime(long)                     ../ipr/AttrGroups.o
AttrGroups::indexOfName(char const*)              ../ipr/AttrGroups.o
AttrGroups::ippCountAttributesInGroup(_ipp_s*, ipp_tag_e, std::map<std::string, int, std::less<std::string>, std::allocator<std::pair<std::string const, int> > >&, unsigned int*, unsigned int*) ../ipr/AttrGroups.o
AttrGroups::ippFindNextAttributeInGroup(_ipp_s*, ipp_tag_e) ../ipr/AttrGroups.o
AttrGroups::ippResetIterator(_ipp_s*)             ../ipr/AttrGroups.o
AttrGroups::ippValueToString(_ipp_attribute_s*, std::string&) ../ipr/AttrGroups.o
AttrGroups::nameForIndex(int)                     ../ipr/AttrGroups.o
AttrGroups::populateValues(_ipp_s*, ipp_tag_e)    ../ipr/AttrGroups.o
AttrGroups::print(char*, char*, AttrGroups::EOutputStyle) ../ipr/AttrGroups.o
                                                  ../ipr/ipr.o
AttrGroups::~AttrGroups()                         ../ipr/AttrGroups.o
                                                  ../ipr/ipr.o
AttrGroups::~AttrGroups()                         ../ipr/AttrGroups.o
AttrGroups::~AttrGroups()                         ../ipr/AttrGroups.o
DW.ref._ZTISt9bad_alloc                           /GCC/lib/gcc/ppc-amigaos/4.2.4/newlib/lib/libstdc++.a(new_op.o)
                                                  /GCC/lib/gcc/ppc-amigaos/4.2.4/newlib/lib/libstdc++.a(new_opv.o)
DW.ref._ZTISt9exception                           /GCC/lib/gcc/ppc-amigaos/4.2.4/newlib/lib/libstdc++.a(vterminate.o)
INewlib                                           /SDK/newlib/lib/libc.a(stub___NewlibCall.o)
                                                  ipp_dev.o
IPP_PRINTER_ENV                                   ../ipr/ipr.o
IPROptions::IPROptions()                          ../ipr/iprutil.o
                                                  ../ipr/ipr.o
IPROptions::IPROptions()                          ../ipr/iprutil.o
IPR_OPT_CHUNKING                                  ../ipr/iprutil.o
IPR_OPT_NOSEND                                    ../ipr/iprutil.o
IPR_OPT_TIMEOUT                                   ../ipr/iprutil.o
IPR_OPT_TRACE                                     ../ipr/iprutil.o
IPR_OPT_TRACEFILES                                ../ipr/iprutil.o
IPR_OPT_VALIDATE_JOB                              ../ipr/iprutil.o
IPR_OPT_VERBOSE                                   ../ipr/iprutil.o
NewlibBase                                        ipp_dev.o
ReturnError                                       ipp_dev.o
SAS_Hack                                          ipp_dev.o
SPrintf                                           ipp_dev.o
VecTable68K                                       dev_68k.o
                                                  ipp_dev.o
_Unwind_Backtrace                                 /GCC/lib/gcc/ppc-amigaos/4.2.4/newlib/lib/libgcc_eh.a(unwind-sjlj.o)
_Unwind_DeleteException                           /GCC/lib/gcc/ppc-amigaos/4.2.4/newlib/lib/libgcc_eh.a(unwind-sjlj.o)
                                                  /GCC/lib/gcc/ppc-amigaos/4.2.4/newlib/lib/libstdc++.a(eh_catch.o)
_Unwind_FindEnclosingFunction                     /GCC/lib/gcc/ppc-amigaos/4.2.4/newlib/lib/libgcc_eh.a(unwind-sjlj.o)
_Unwind_GetCFA                                    /GCC/lib/gcc/ppc-amigaos/4.2.4/newlib/lib/libgcc_eh.a(unwind-sjlj.o)
_Unwind_GetDataRelBase                            /GCC/lib/gcc/ppc-amigaos/4.2.4/newlib/lib/libgcc_eh.a(unwind-sjlj.o)
                                                  /GCC/lib/gcc/ppc-amigaos/4.2.4/newlib/lib/libstdc++.a(eh_personality.o)
_Unwind_GetGR                                     /GCC/lib/gcc/ppc-amigaos/4.2.4/newlib/lib/libgcc_eh.a(unwind-sjlj.o)
_Unwind_GetIP                                     /GCC/lib/gcc/ppc-amigaos/4.2.4/newlib/lib/libgcc_eh.a(unwind-sjlj.o)
_Unwind_GetIPInfo                                 /GCC/lib/gcc/ppc-amigaos/4.2.4/newlib/lib/libgcc_eh.a(unwind-sjlj.o)
                                                  /GCC/lib/gcc/ppc-amigaos/4.2.4/newlib/lib/libstdc++.a(eh_personality.o)
_Unwind_GetLanguageSpecificData                   /GCC/lib/gcc/ppc-amigaos/4.2.4/newlib/lib/libgcc_eh.a(unwind-sjlj.o)
                                                  /GCC/lib/gcc/ppc-amigaos/4.2.4/newlib/lib/libstdc++.a(eh_personality.o)
_Unwind_GetRegionStart                            /GCC/lib/gcc/ppc-amigaos/4.2.4/newlib/lib/libgcc_eh.a(unwind-sjlj.o)
                                                  /GCC/lib/gcc/ppc-amigaos/4.2.4/newlib/lib/libstdc++.a(eh_personality.o)
_Unwind_GetTextRelBase                            /GCC/lib/gcc/ppc-amigaos/4.2.4/newlib/lib/libgcc_eh.a(unwind-sjlj.o)
                                                  /GCC/lib/gcc/ppc-amigaos/4.2.4/newlib/lib/libstdc++.a(eh_personality.o)
_Unwind_SetGR                                     /GCC/lib/gcc/ppc-amigaos/4.2.4/newlib/lib/libgcc_eh.a(unwind-sjlj.o)
                                                  /GCC/lib/gcc/ppc-amigaos/4.2.4/newlib/lib/libstdc++.a(eh_personality.o)
_Unwind_SetIP                                     /GCC/lib/gcc/ppc-amigaos/4.2.4/newlib/lib/libgcc_eh.a(unwind-sjlj.o)
                                                  /GCC/lib/gcc/ppc-amigaos/4.2.4/newlib/lib/libstdc++.a(eh_personality.o)
_Unwind_SjLj_ForcedUnwind                         /GCC/lib/gcc/ppc-amigaos/4.2.4/newlib/lib/libgcc_eh.a(unwind-sjlj.o)
_Unwind_SjLj_RaiseException                       /GCC/lib/gcc/ppc-amigaos/4.2.4/newlib/lib/libgcc_eh.a(unwind-sjlj.o)
                                                  /GCC/lib/gcc/ppc-amigaos/4.2.4/newlib/lib/libstdc++.a(eh_throw.o)
_Unwind_SjLj_Register                             /GCC/lib/gcc/ppc-amigaos/4.2.4/newlib/lib/libgcc_eh.a(unwind-sjlj.o)
                                                  /GCC/lib/gcc/ppc-amigaos/4.2.4/newlib/lib/libstdc++.a(vterminate.o)
                                                  /GCC/lib/gcc/ppc-amigaos/4.2.4/newlib/lib/libstdc++.a(new_opv.o)
                                                  /GCC/lib/gcc/ppc-amigaos/4.2.4/newlib/lib/libstdc++.a(new_op.o)
                                                  /GCC/lib/gcc/ppc-amigaos/4.2.4/newlib/lib/libstdc++.a(eh_terminate.o)
                                                  /GCC/lib/gcc/ppc-amigaos/4.2.4/newlib/lib/libstdc++.a(eh_personality.o)
                                                  /GCC/lib/gcc/ppc-amigaos/4.2.4/newlib/lib/libstdc++.a(eh_catch.o)
                                                  /GCC/lib/gcc/ppc-amigaos/4.2.4/newlib/lib/libstdc++.a(eh_alloc.o)
                                                  /GCC/lib/gcc/ppc-amigaos/4.2.4/newlib/lib/libstdc++.a(string-inst.o)
                                                  /GCC/lib/gcc/ppc-amigaos/4.2.4/newlib/lib/libstdc++.a(stdexcept.o)
                                                  /GCC/lib/gcc/ppc-amigaos/4.2.4/newlib/lib/libstdc++.a(ios_failure.o)
                                                  /GCC/lib/gcc/ppc-amigaos/4.2.4/newlib/lib/libstdc++.a(functexcept.o)
                                                  ../ipr/AttrGroups.o
                                                  ../ipr/ipr.o
_Unwind_SjLj_Resume                               /GCC/lib/gcc/ppc-amigaos/4.2.4/newlib/lib/libgcc_eh.a(unwind-sjlj.o)
                                                  /GCC/lib/gcc/ppc-amigaos/4.2.4/newlib/lib/libstdc++.a(vterminate.o)
                                                  /GCC/lib/gcc/ppc-amigaos/4.2.4/newlib/lib/libstdc++.a(new_opv.o)
                                                  /GCC/lib/gcc/ppc-amigaos/4.2.4/newlib/lib/libstdc++.a(new_op.o)
                                                  /GCC/lib/gcc/ppc-amigaos/4.2.4/newlib/lib/libstdc++.a(eh_terminate.o)
                                                  /GCC/lib/gcc/ppc-amigaos/4.2.4/newlib/lib/libstdc++.a(eh_personality.o)
                                                  /GCC/lib/gcc/ppc-amigaos/4.2.4/newlib/lib/libstdc++.a(eh_catch.o)
                                                  /GCC/lib/gcc/ppc-amigaos/4.2.4/newlib/lib/libstdc++.a(eh_alloc.o)
                                                  /GCC/lib/gcc/ppc-amigaos/4.2.4/newlib/lib/libstdc++.a(string-inst.o)
                                                  /GCC/lib/gcc/ppc-amigaos/4.2.4/newlib/lib/libstdc++.a(stdexcept.o)
                                                  /GCC/lib/gcc/ppc-amigaos/4.2.4/newlib/lib/libstdc++.a(ios_failure.o)
                                                  /GCC/lib/gcc/ppc-amigaos/4.2.4/newlib/lib/libstdc++.a(functexcept.o)
                                                  ../ipr/AttrGroups.o
                                                  ../ipr/ipr.o
_Unwind_SjLj_Resume_or_Rethrow                    /GCC/lib/gcc/ppc-amigaos/4.2.4/newlib/lib/libgcc_eh.a(unwind-sjlj.o)
                                                  /GCC/lib/gcc/ppc-amigaos/4.2.4/newlib/lib/libstdc++.a(eh_throw.o)
_Unwind_SjLj_Unregister                           /GCC/lib/gcc/ppc-amigaos/4.2.4/newlib/lib/libgcc_eh.a(unwind-sjlj.o)
                                                  /GCC/lib/gcc/ppc-amigaos/4.2.4/newlib/lib/libstdc++.a(vterminate.o)
                                                  /GCC/lib/gcc/ppc-amigaos/4.2.4/newlib/lib/libstdc++.a(new_opv.o)
                                                  /GCC/lib/gcc/ppc-amigaos/4.2.4/newlib/lib/libstdc++.a(new_op.o)
                                                  /GCC/lib/gcc/ppc-amigaos/4.2.4/newlib/lib/libstdc++.a(eh_terminate.o)
                                                  /GCC/lib/gcc/ppc-amigaos/4.2.4/newlib/lib/libstdc++.a(eh_personality.o)
                                                  /GCC/lib/gcc/ppc-amigaos/4.2.4/newlib/lib/libstdc++.a(eh_catch.o)
                                                  /GCC/lib/gcc/ppc-amigaos/4.2.4/newlib/lib/libstdc++.a(eh_alloc.o)
                                                  /GCC/lib/gcc/ppc-amigaos/4.2.4/newlib/lib/libstdc++.a(string-inst.o)
                                                  /GCC/lib/gcc/ppc-amigaos/4.2.4/newlib/lib/libstdc++.a(stdexcept.o)
                                                  /GCC/lib/gcc/ppc-amigaos/4.2.4/newlib/lib/libstdc++.a(ios_failure.o)
                                                  /GCC/lib/gcc/ppc-amigaos/4.2.4/newlib/lib/libstdc++.a(functexcept.o)
                                                  ../ipr/AttrGroups.o
                                                  ../ipr/ipr.o
__NewlibCall                                      /SDK/newlib/lib/libc.a(stub___NewlibCall.o)
                                                  /SDK/newlib/lib/libc.a(stub_write.o)
                                                  /SDK/newlib/lib/libc.a(stub_vsnprintf.o)
                                                  /SDK/newlib/lib/libc.a(stub_uname.o)
                                                  /SDK/newlib/lib/libc.a(stub_time.o)
                                                  /SDK/newlib/lib/libc.a(stub_strtoll.o)
                                                  /SDK/newlib/lib/libc.a(stub_strtol.o)
                                                  /SDK/newlib/lib/libc.a(stub_strtod.o)
                                                  /SDK/newlib/lib/libc.a(stub_strstr.o)
                                                  /SDK/newlib/lib/libc.a(stub_strrchr.o)
                                                  /SDK/newlib/lib/libc.a(stub_strpbrk.o)
                                                  /SDK/newlib/lib/libc.a(stub_strncpy.o)
                                                  /SDK/newlib/lib/libc.a(stub_strncmp.o)
                                                  /SDK/newlib/lib/libc.a(stub_strncasecmp.o)
                                                  /SDK/newlib/lib/libc.a(stub_strlen.o)
                                                  /SDK/newlib/lib/libc.a(stub_strftime.o)
                                                  /SDK/newlib/lib/libc.a(stub_strerror.o)
                                                  /SDK/newlib/lib/libc.a(stub_strdup.o)
                                                  /SDK/newlib/lib/libc.a(stub_strcpy.o)
                                                  /SDK/newlib/lib/libc.a(stub_strcmp.o)
                                                  /SDK/newlib/lib/libc.a(stub_strchr.o)
                                                  /SDK/newlib/lib/libc.a(stub_strcat.o)
                                                  /SDK/newlib/lib/libc.a(stub_stat.o)
                                                  /SDK/newlib/lib/libc.a(stub_sscanf.o)
                                                  /SDK/newlib/lib/libc.a(stub___srget.o)
                                                  /SDK/newlib/lib/libc.a(stub_sprintf.o)
                                                  /SDK/newlib/lib/libc.a(stub_socket.o)
                                                  /SDK/newlib/lib/libc.a(stub_snprintf.o)
                                                  /SDK/newlib/lib/libc.a(stub_signal.o)
                                                  /SDK/newlib/lib/libc.a(stub_shutdown.o)
                                                  /SDK/newlib/lib/libc.a(stub_setsockopt.o)
                                                  /SDK/newlib/lib/libc.a(stub_setlocale.o)
                                                  /SDK/newlib/lib/libc.a(stub_send.o)
                                                  /SDK/newlib/lib/libc.a(stub_select.o)
                                                  /SDK/newlib/lib/libc.a(stub_recv.o)
                                                  /SDK/newlib/lib/libc.a(stub_realloc.o)
                                                  /SDK/newlib/lib/libc.a(stub_read.o)
                                                  /SDK/newlib/lib/libc.a(stub_rand.o)
                                                  /SDK/newlib/lib/libc.a(stub_puts.o)
                                                  /SDK/newlib/lib/libc.a(stub_putchar.o)
                                                  /SDK/newlib/lib/libc.a(stub_printf.o)
                                                  /SDK/newlib/lib/libc.a(stub_perror.o)
                                                  /SDK/newlib/lib/libc.a(stub_open.o)
                                                  /SDK/newlib/lib/libc.a(stub_mktime.o)
                                                  /SDK/newlib/lib/libc.a(stub_memset.o)
                                                  /SDK/newlib/lib/libc.a(stub_memmove.o)
                                                  /SDK/newlib/lib/libc.a(stub_memcpy.o)
                                                  /SDK/newlib/lib/libc.a(stub_memcmp.o)
                                                  /SDK/newlib/lib/libc.a(stub_memchr.o)
                                                  /SDK/newlib/lib/libc.a(stub_malloc.o)
                                                  /SDK/newlib/lib/libc.a(stub_lstat.o)
                                                  /SDK/newlib/lib/libc.a(stub_lseek.o)
                                                  /SDK/newlib/lib/libc.a(stub_localtime.o)
                                                  /SDK/newlib/lib/libc.a(stub_localeconv.o)
                                                  /SDK/newlib/lib/libc.a(stub_listen.o)
                                                  /SDK/newlib/lib/libc.a(stub_hstrerror.o)
                                                  /SDK/newlib/lib/libc.a(stub___h_errno.o)
                                                  /SDK/newlib/lib/libc.a(stub_gmtime.o)
                                                  /SDK/newlib/lib/libc.a(stub_getuid.o)
                                                  /SDK/newlib/lib/libc.a(stub_getservbyname.o)
                                                  /SDK/newlib/lib/libc.a(stub___getreent.o)
                                                  /SDK/newlib/lib/libc.a(stub_getpwuid.o)
                                                  /SDK/newlib/lib/libc.a(stub_getpwnam.o)
                                                  /SDK/newlib/lib/libc.a(stub_getpid.o)
                                                  /SDK/newlib/lib/libc.a(stub_gethostname.o)
                                                  /SDK/newlib/lib/libc.a(stub_gethostbyname.o)
                                                  /SDK/newlib/lib/libc.a(stub_gethostbyaddr.o)
                                                  /SDK/newlib/lib/libc.a(stub_getenv.o)
                                                  /SDK/newlib/lib/libc.a(stub_fwrite.o)
                                                  /SDK/newlib/lib/libc.a(stub_ftruncate.o)
                                                  /SDK/newlib/lib/libc.a(stub_ftell.o)
                                                  /SDK/newlib/lib/libc.a(stub_fstat.o)
                                                  /SDK/newlib/lib/libc.a(stub_fseek.o)
                                                  /SDK/newlib/lib/libc.a(stub_free.o)
                                                  /SDK/newlib/lib/libc.a(stub_fread.o)
                                                  /SDK/newlib/lib/libc.a(stub_fputs.o)
                                                  /SDK/newlib/lib/libc.a(stub_fputc.o)
                                                  /SDK/newlib/lib/libc.a(stub_fprintf.o)
                                                  /SDK/newlib/lib/libc.a(stub_fopen.o)
                                                  /SDK/newlib/lib/libc.a(stub_fmod.o)
                                                  /SDK/newlib/lib/libc.a(stub_fgets.o)
                                                  /SDK/newlib/lib/libc.a(stub_fflush.o)
                                                  /SDK/newlib/lib/libc.a(stub_feof.o)
                                                  /SDK/newlib/lib/libc.a(stub_fcntl.o)
                                                  /SDK/newlib/lib/libc.a(stub_fclose.o)
                                                  /SDK/newlib/lib/libc.a(stub___errno.o)
                                                  /SDK/newlib/lib/libc.a(stub_connect.o)
                                                  /SDK/newlib/lib/libc.a(stub_close.o)
                                                  /SDK/newlib/lib/libc.a(stub_calloc.o)
                                                  /SDK/newlib/lib/libc.a(stub_bind.o)
                                                  /SDK/newlib/lib/libc.a(stub_atoi.o)
                                                  /SDK/newlib/lib/libc.a(stub___assert.o)
                                                  /SDK/newlib/lib/libc.a(stub_access.o)
                                                  /SDK/newlib/lib/libc.a(stub_accept.o)
                                                  /SDK/newlib/lib/libc.a(stub_abort.o)
__assert                                          /SDK/newlib/lib/libc.a(stub___assert.o)
                                                  ../ipr/AttrGroups.o
                                                  ../ipr/iprutil.o
                                                  ../ipr/ipr.o
__ctype_ptr                                       /SDK/newlib/lib/libc.a(lib_a-ctype_.o)
                                                  /SDK/local/newlib/lib/libregex.a(regexec.o)
                                                  /SDK/local/newlib/lib/libregex.a(regcomp.o)
                                                  ../cups/libcups.a(ipp-support.o)
                                                  ../cups/libcups.a(file.o)
                                                  ../cups/libcups.a(array.o)
                                                  ../cups/libcups.a(usersys.o)
                                                  ../cups/libcups.a(string.o)
                                                  ../cups/libcups.a(language.o)
                                                  ../cups/libcups.a(ipp.o)
                                                  ../cups/libcups.a(http-support.o)
                                                  ../cups/libcups.a(http-addrlist.o)
                                                  ../cups/libcups.a(http-addr.o)
                                                  ../cups/libcups.a(http.o)
__cxa_allocate_exception                          /GCC/lib/gcc/ppc-amigaos/4.2.4/newlib/lib/libstdc++.a(eh_alloc.o)
                                                  /GCC/lib/gcc/ppc-amigaos/4.2.4/newlib/lib/libstdc++.a(new_op.o)
                                                  /GCC/lib/gcc/ppc-amigaos/4.2.4/newlib/lib/libstdc++.a(eh_personality.o)
                                                  /GCC/lib/gcc/ppc-amigaos/4.2.4/newlib/lib/libstdc++.a(functexcept.o)
__cxa_begin_catch                                 /GCC/lib/gcc/ppc-amigaos/4.2.4/newlib/lib/libstdc++.a(eh_catch.o)
                                                  /GCC/lib/gcc/ppc-amigaos/4.2.4/newlib/lib/libstdc++.a(eh_call.o)
                                                  /GCC/lib/gcc/ppc-amigaos/4.2.4/newlib/lib/libstdc++.a(vterminate.o)
                                                  /GCC/lib/gcc/ppc-amigaos/4.2.4/newlib/lib/libstdc++.a(eh_throw.o)
                                                  /GCC/lib/gcc/ppc-amigaos/4.2.4/newlib/lib/libstdc++.a(eh_terminate.o)
                                                  /GCC/lib/gcc/ppc-amigaos/4.2.4/newlib/lib/libstdc++.a(eh_personality.o)
                                                  ../ipr/AttrGroups.o
__cxa_call_terminate                              /GCC/lib/gcc/ppc-amigaos/4.2.4/newlib/lib/libstdc++.a(eh_call.o)
                                                  /GCC/lib/gcc/ppc-amigaos/4.2.4/newlib/lib/libstdc++.a(eh_personality.o)
__cxa_call_unexpected                             /GCC/lib/gcc/ppc-amigaos/4.2.4/newlib/lib/libstdc++.a(eh_personality.o)
                                                  /GCC/lib/gcc/ppc-amigaos/4.2.4/newlib/lib/libstdc++.a(new_opv.o)
                                                  /GCC/lib/gcc/ppc-amigaos/4.2.4/newlib/lib/libstdc++.a(new_op.o)
                                                  /GCC/lib/gcc/ppc-amigaos/4.2.4/newlib/lib/libstdc++.a(eh_catch.o)
                                                  /GCC/lib/gcc/ppc-amigaos/4.2.4/newlib/lib/libstdc++.a(eh_alloc.o)
                                                  /GCC/lib/gcc/ppc-amigaos/4.2.4/newlib/lib/libstdc++.a(ios_failure.o)
__cxa_current_exception_type                      /GCC/lib/gcc/ppc-amigaos/4.2.4/newlib/lib/libstdc++.a(eh_type.o)
                                                  /GCC/lib/gcc/ppc-amigaos/4.2.4/newlib/lib/libstdc++.a(vterminate.o)
__cxa_demangle                                    /GCC/lib/gcc/ppc-amigaos/4.2.4/newlib/lib/libstdc++.a(cp-demangle.o)
                                                  /GCC/lib/gcc/ppc-amigaos/4.2.4/newlib/lib/libstdc++.a(vterminate.o)
__cxa_end_catch                                   /GCC/lib/gcc/ppc-amigaos/4.2.4/newlib/lib/libstdc++.a(eh_catch.o)
                                                  /GCC/lib/gcc/ppc-amigaos/4.2.4/newlib/lib/libstdc++.a(vterminate.o)
                                                  /GCC/lib/gcc/ppc-amigaos/4.2.4/newlib/lib/libstdc++.a(eh_terminate.o)
                                                  /GCC/lib/gcc/ppc-amigaos/4.2.4/newlib/lib/libstdc++.a(eh_personality.o)
                                                  ../ipr/AttrGroups.o
__cxa_free_exception                              /GCC/lib/gcc/ppc-amigaos/4.2.4/newlib/lib/libstdc++.a(eh_alloc.o)
                                                  /GCC/lib/gcc/ppc-amigaos/4.2.4/newlib/lib/libstdc++.a(eh_throw.o)
                                                  /GCC/lib/gcc/ppc-amigaos/4.2.4/newlib/lib/libstdc++.a(functexcept.o)
__cxa_get_exception_ptr                           /GCC/lib/gcc/ppc-amigaos/4.2.4/newlib/lib/libstdc++.a(eh_catch.o)
__cxa_get_globals                                 /GCC/lib/gcc/ppc-amigaos/4.2.4/newlib/lib/libstdc++.a(eh_globals.o)
                                                  /GCC/lib/gcc/ppc-amigaos/4.2.4/newlib/lib/libstdc++.a(eh_type.o)
                                                  /GCC/lib/gcc/ppc-amigaos/4.2.4/newlib/lib/libstdc++.a(eh_throw.o)
                                                  /GCC/lib/gcc/ppc-amigaos/4.2.4/newlib/lib/libstdc++.a(eh_catch.o)
                                                  /GCC/lib/gcc/ppc-amigaos/4.2.4/newlib/lib/libstdc++.a(eh_alloc.o)
__cxa_get_globals_fast                            /GCC/lib/gcc/ppc-amigaos/4.2.4/newlib/lib/libstdc++.a(eh_globals.o)
                                                  /GCC/lib/gcc/ppc-amigaos/4.2.4/newlib/lib/libstdc++.a(eh_personality.o)
                                                  /GCC/lib/gcc/ppc-amigaos/4.2.4/newlib/lib/libstdc++.a(eh_catch.o)
__cxa_rethrow                                     /GCC/lib/gcc/ppc-amigaos/4.2.4/newlib/lib/libstdc++.a(eh_throw.o)
                                                  /GCC/lib/gcc/ppc-amigaos/4.2.4/newlib/lib/libstdc++.a(vterminate.o)
                                                  /GCC/lib/gcc/ppc-amigaos/4.2.4/newlib/lib/libstdc++.a(eh_personality.o)
                                                  ../ipr/AttrGroups.o
__cxa_throw                                       /GCC/lib/gcc/ppc-amigaos/4.2.4/newlib/lib/libstdc++.a(eh_throw.o)
                                                  /GCC/lib/gcc/ppc-amigaos/4.2.4/newlib/lib/libstdc++.a(new_op.o)
                                                  /GCC/lib/gcc/ppc-amigaos/4.2.4/newlib/lib/libstdc++.a(eh_personality.o)
                                                  /GCC/lib/gcc/ppc-amigaos/4.2.4/newlib/lib/libstdc++.a(functexcept.o)
__cxxabiv1::__class_type_info::__do_catch(std::type_info const*, void**, unsigned int) const /GCC/lib/gcc/ppc-amigaos/4.2.4/newlib/lib/libstdc++.a(tinfo.o)
__cxxabiv1::__class_type_info::__do_dyncast(int, __cxxabiv1::__class_type_info::__sub_kind, __cxxabiv1::__class_type_info const*, void const*, __cxxabiv1::__class_type_info const*, void const*, __cxxabiv1::__class_type_info::__dyncast_result&) const /GCC/lib/gcc/ppc-amigaos/4.2.4/newlib/lib/libstdc++.a(tinfo.o)
__cxxabiv1::__class_type_info::__do_find_public_src(int, void const*, __cxxabiv1::__class_type_info const*, void const*) const /GCC/lib/gcc/ppc-amigaos/4.2.4/newlib/lib/libstdc++.a(tinfo.o)
__cxxabiv1::__class_type_info::__do_upcast(__cxxabiv1::__class_type_info const*, void const*, __cxxabiv1::__class_type_info::__upcast_result&) const /GCC/lib/gcc/ppc-amigaos/4.2.4/newlib/lib/libstdc++.a(tinfo.o)
__cxxabiv1::__class_type_info::__do_upcast(__cxxabiv1::__class_type_info const*, void**) const /GCC/lib/gcc/ppc-amigaos/4.2.4/newlib/lib/libstdc++.a(tinfo.o)
__cxxabiv1::__class_type_info::~__class_type_info() /GCC/lib/gcc/ppc-amigaos/4.2.4/newlib/lib/libstdc++.a(tinfo.o)
__cxxabiv1::__class_type_info::~__class_type_info() /GCC/lib/gcc/ppc-amigaos/4.2.4/newlib/lib/libstdc++.a(tinfo.o)
__cxxabiv1::__class_type_info::~__class_type_info() /GCC/lib/gcc/ppc-amigaos/4.2.4/newlib/lib/libstdc++.a(tinfo.o)
__cxxabiv1::__si_class_type_info::__do_dyncast(int, __cxxabiv1::__class_type_info::__sub_kind, __cxxabiv1::__class_type_info const*, void const*, __cxxabiv1::__class_type_info const*, void const*, __cxxabiv1::__class_type_info::__dyncast_result&) const /GCC/lib/gcc/ppc-amigaos/4.2.4/newlib/lib/libstdc++.a(tinfo.o)
__cxxabiv1::__si_class_type_info::__do_find_public_src(int, void const*, __cxxabiv1::__class_type_info const*, void const*) const /GCC/lib/gcc/ppc-amigaos/4.2.4/newlib/lib/libstdc++.a(tinfo.o)
__cxxabiv1::__si_class_type_info::__do_upcast(__cxxabiv1::__class_type_info const*, void const*, __cxxabiv1::__class_type_info::__upcast_result&) const /GCC/lib/gcc/ppc-amigaos/4.2.4/newlib/lib/libstdc++.a(tinfo.o)
__cxxabiv1::__si_class_type_info::~__si_class_type_info() /GCC/lib/gcc/ppc-amigaos/4.2.4/newlib/lib/libstdc++.a(tinfo.o)
__cxxabiv1::__si_class_type_info::~__si_class_type_info() /GCC/lib/gcc/ppc-amigaos/4.2.4/newlib/lib/libstdc++.a(tinfo.o)
__cxxabiv1::__si_class_type_info::~__si_class_type_info() /GCC/lib/gcc/ppc-amigaos/4.2.4/newlib/lib/libstdc++.a(tinfo.o)
__cxxabiv1::__terminate(void (*)())               /GCC/lib/gcc/ppc-amigaos/4.2.4/newlib/lib/libstdc++.a(eh_terminate.o)
                                                  /GCC/lib/gcc/ppc-amigaos/4.2.4/newlib/lib/libstdc++.a(eh_call.o)
                                                  /GCC/lib/gcc/ppc-amigaos/4.2.4/newlib/lib/libstdc++.a(eh_throw.o)
                                                  /GCC/lib/gcc/ppc-amigaos/4.2.4/newlib/lib/libstdc++.a(eh_personality.o)
__cxxabiv1::__terminate_handler                   /GCC/lib/gcc/ppc-amigaos/4.2.4/newlib/lib/libstdc++.a(eh_term_handler.o)
                                                  /GCC/lib/gcc/ppc-amigaos/4.2.4/newlib/lib/libstdc++.a(eh_throw.o)
                                                  /GCC/lib/gcc/ppc-amigaos/4.2.4/newlib/lib/libstdc++.a(eh_terminate.o)
__cxxabiv1::__unexpected(void (*)())              /GCC/lib/gcc/ppc-amigaos/4.2.4/newlib/lib/libstdc++.a(eh_terminate.o)
                                                  /GCC/lib/gcc/ppc-amigaos/4.2.4/newlib/lib/libstdc++.a(eh_personality.o)
__cxxabiv1::__unexpected_handler                  /GCC/lib/gcc/ppc-amigaos/4.2.4/newlib/lib/libstdc++.a(eh_unex_handler.o)
                                                  /GCC/lib/gcc/ppc-amigaos/4.2.4/newlib/lib/libstdc++.a(eh_throw.o)
                                                  /GCC/lib/gcc/ppc-amigaos/4.2.4/newlib/lib/libstdc++.a(eh_terminate.o)
__cxxabiv1::__vmi_class_type_info::__do_dyncast(int, __cxxabiv1::__class_type_info::__sub_kind, __cxxabiv1::__class_type_info const*, void const*, __cxxabiv1::__class_type_info const*, void const*, __cxxabiv1::__class_type_info::__dyncast_result&) const /GCC/lib/gcc/ppc-amigaos/4.2.4/newlib/lib/libstdc++.a(tinfo.o)
__cxxabiv1::__vmi_class_type_info::__do_find_public_src(int, void const*, __cxxabiv1::__class_type_info const*, void const*) const /GCC/lib/gcc/ppc-amigaos/4.2.4/newlib/lib/libstdc++.a(tinfo.o)
__cxxabiv1::__vmi_class_type_info::__do_upcast(__cxxabiv1::__class_type_info const*, void const*, __cxxabiv1::__class_type_info::__upcast_result&) const /GCC/lib/gcc/ppc-amigaos/4.2.4/newlib/lib/libstdc++.a(tinfo.o)
__cxxabiv1::__vmi_class_type_info::~__vmi_class_type_info() /GCC/lib/gcc/ppc-amigaos/4.2.4/newlib/lib/libstdc++.a(tinfo.o)
__cxxabiv1::__vmi_class_type_info::~__vmi_class_type_info() /GCC/lib/gcc/ppc-amigaos/4.2.4/newlib/lib/libstdc++.a(tinfo.o)
__cxxabiv1::__vmi_class_type_info::~__vmi_class_type_info() /GCC/lib/gcc/ppc-amigaos/4.2.4/newlib/lib/libstdc++.a(tinfo.o)
__dynamic_cast                                    /GCC/lib/gcc/ppc-amigaos/4.2.4/newlib/lib/libstdc++.a(tinfo.o)
__errno                                           /SDK/newlib/lib/libc.a(stub___errno.o)
                                                  ../cups/libcups.a(file.o)
                                                  ../cups/libcups.a(request.o)
                                                  ../cups/libcups.a(langprintf.o)
                                                  ../cups/libcups.a(ipp.o)
                                                  ../cups/libcups.a(http-support.o)
                                                  ../cups/libcups.a(http-addrlist.o)
                                                  ../cups/libcups.a(http.o)
__getreent                                        /SDK/newlib/lib/libc.a(stub___getreent.o)
                                                  /GCC/lib/gcc/ppc-amigaos/4.2.4/newlib/lib/libstdc++.a(vterminate.o)
                                                  ../cups/libcups.a(file.o)
                                                  ../cups/libcups.a(thread.o)
                                                  ../cups/libcups.a(langprintf.o)
                                                  ../cups/libcups.a(http-support.o)
                                                  ../ipr/AttrGroups.o
                                                  ../ipr/iprutil.o
                                                  ../ipr/ipr.o
__gnu_cxx::__verbose_terminate_handler()          /GCC/lib/gcc/ppc-amigaos/4.2.4/newlib/lib/libstdc++.a(vterminate.o)
                                                  /GCC/lib/gcc/ppc-amigaos/4.2.4/newlib/lib/libstdc++.a(eh_term_handler.o)
__gxx_personality_sj0                             /GCC/lib/gcc/ppc-amigaos/4.2.4/newlib/lib/libstdc++.a(eh_personality.o)
                                                  /GCC/lib/gcc/ppc-amigaos/4.2.4/newlib/lib/libstdc++.a(eh_type.o)
                                                  /GCC/lib/gcc/ppc-amigaos/4.2.4/newlib/lib/libstdc++.a(eh_call.o)
                                                  /GCC/lib/gcc/ppc-amigaos/4.2.4/newlib/lib/libstdc++.a(vterminate.o)
                                                  /GCC/lib/gcc/ppc-amigaos/4.2.4/newlib/lib/libstdc++.a(tinfo.o)
                                                  /GCC/lib/gcc/ppc-amigaos/4.2.4/newlib/lib/libstdc++.a(new_opv.o)
                                                  /GCC/lib/gcc/ppc-amigaos/4.2.4/newlib/lib/libstdc++.a(new_op.o)
                                                  /GCC/lib/gcc/ppc-amigaos/4.2.4/newlib/lib/libstdc++.a(new_handler.o)
                                                  /GCC/lib/gcc/ppc-amigaos/4.2.4/newlib/lib/libstdc++.a(eh_throw.o)
                                                  /GCC/lib/gcc/ppc-amigaos/4.2.4/newlib/lib/libstdc++.a(eh_terminate.o)
                                                  /GCC/lib/gcc/ppc-amigaos/4.2.4/newlib/lib/libstdc++.a(eh_globals.o)
                                                  /GCC/lib/gcc/ppc-amigaos/4.2.4/newlib/lib/libstdc++.a(eh_exception.o)
                                                  /GCC/lib/gcc/ppc-amigaos/4.2.4/newlib/lib/libstdc++.a(eh_catch.o)
                                                  /GCC/lib/gcc/ppc-amigaos/4.2.4/newlib/lib/libstdc++.a(eh_alloc.o)
                                                  /GCC/lib/gcc/ppc-amigaos/4.2.4/newlib/lib/libstdc++.a(del_opv.o)
                                                  /GCC/lib/gcc/ppc-amigaos/4.2.4/newlib/lib/libstdc++.a(del_op.o)
                                                  /GCC/lib/gcc/ppc-amigaos/4.2.4/newlib/lib/libstdc++.a(string-inst.o)
                                                  /GCC/lib/gcc/ppc-amigaos/4.2.4/newlib/lib/libstdc++.a(tree.o)
                                                  /GCC/lib/gcc/ppc-amigaos/4.2.4/newlib/lib/libstdc++.a(stdexcept.o)
                                                  /GCC/lib/gcc/ppc-amigaos/4.2.4/newlib/lib/libstdc++.a(ios_failure.o)
                                                  /GCC/lib/gcc/ppc-amigaos/4.2.4/newlib/lib/libstdc++.a(functexcept.o)
                                                  ../ipr/AttrGroups.o
                                                  ../ipr/iprutil.o
                                                  ../ipr/ipr.o
__h_errno                                         /SDK/newlib/lib/libc.a(stub___h_errno.o)
                                                  ../cups/libcups.a(http-addrlist.o)
                                                  ../cups/libcups.a(http-addr.o)
__new_handler                                     /GCC/lib/gcc/ppc-amigaos/4.2.4/newlib/lib/libstdc++.a(new_handler.o)
                                                  /GCC/lib/gcc/ppc-amigaos/4.2.4/newlib/lib/libstdc++.a(new_op.o)
__srget                                           /SDK/newlib/lib/libc.a(stub___srget.o)
                                                  ../ipr/iprutil.o
_ctype_                                           /SDK/newlib/lib/libc.a(lib_a-ctype_.o)
_cupsArrayAddStrings                              ../cups/libcups.a(array.o)
_cupsArrayNewStrings                              ../cups/libcups.a(array.o)
_cupsBufferGet                                    ../cups/libcups.a(ipp.o)
_cupsBufferRelease                                ../cups/libcups.a(ipp.o)
_cupsCharmapFlush                                 ../cups/libcups.a(transcode.o)
_cupsCondBroadcast                                ../cups/libcups.a(thread.o)
_cupsCondInit                                     ../cups/libcups.a(thread.o)
_cupsCondWait                                     ../cups/libcups.a(thread.o)
_cupsConnect                                      ../cups/libcups.a(request.o)
                                                  ../cups/libcups.a(auth.o)
                                                  ../cups/libcups.a(usersys.o)
_cupsEncodingName                                 ../cups/libcups.a(language.o)
_cupsFileCheck                                    ../cups/libcups.a(file.o)
_cupsFileCheckFilter                              ../cups/libcups.a(file.o)
_cupsGetPassword                                  ../cups/libcups.a(usersys.o)
                                                  ../cups/libcups.a(globals.o)
_cupsGlobalLock                                   ../cups/libcups.a(globals.o)
                                                  ../cups/libcups.a(http.o)
_cupsGlobalUnlock                                 ../cups/libcups.a(globals.o)
                                                  ../cups/libcups.a(http.o)
_cupsGlobals                                      ../cups/libcups.a(globals.o)
                                                  ../cups/libcups.a(ipp-support.o)
                                                  ../cups/libcups.a(file.o)
                                                  ../cups/libcups.a(auth.o)
                                                  ../cups/libcups.a(usersys.o)
                                                  ../cups/libcups.a(string.o)
                                                  ../cups/libcups.a(request.o)
                                                  ../cups/libcups.a(language.o)
                                                  ../cups/libcups.a(langprintf.o)
                                                  ../cups/libcups.a(ipp.o)
                                                  ../cups/libcups.a(http-support.o)
                                                  ../cups/libcups.a(http-addrlist.o)
                                                  ../cups/libcups.a(http-addr.o)
_cupsLangPrintError                               ../cups/libcups.a(langprintf.o)
_cupsLangPrintFilter                              ../cups/libcups.a(langprintf.o)
                                                  ../cups/libcups.a(http-support.o)
_cupsLangPrintf                                   ../cups/libcups.a(langprintf.o)
_cupsLangPuts                                     ../cups/libcups.a(langprintf.o)
_cupsLangString                                   ../cups/libcups.a(language.o)
                                                  ../cups/libcups.a(file.o)
                                                  ../cups/libcups.a(auth.o)
                                                  ../cups/libcups.a(request.o)
                                                  ../cups/libcups.a(langprintf.o)
                                                  ../cups/libcups.a(ipp.o)
                                                  ../cups/libcups.a(http-support.o)
_cupsMD5Append                                    ../cups/libcups.a(md5.o)
                                                  ../cups/libcups.a(md5passwd.o)
                                                  ../cups/libcups.a(http-support.o)
_cupsMD5Finish                                    ../cups/libcups.a(md5.o)
                                                  ../cups/libcups.a(md5passwd.o)
                                                  ../cups/libcups.a(http-support.o)
_cupsMD5Init                                      ../cups/libcups.a(md5.o)
                                                  ../cups/libcups.a(md5passwd.o)
                                                  ../cups/libcups.a(http-support.o)
_cupsMessageFree                                  ../cups/libcups.a(language.o)
_cupsMessageLoad                                  ../cups/libcups.a(language.o)
_cupsMessageLookup                                ../cups/libcups.a(language.o)
_cupsMessageNew                                   ../cups/libcups.a(language.o)
_cupsMutexInit                                    ../cups/libcups.a(thread.o)
_cupsMutexLock                                    ../cups/libcups.a(thread.o)
                                                  ../cups/libcups.a(string.o)
                                                  ../cups/libcups.a(language.o)
                                                  ../cups/libcups.a(ipp.o)
_cupsMutexUnlock                                  ../cups/libcups.a(thread.o)
                                                  ../cups/libcups.a(string.o)
                                                  ../cups/libcups.a(language.o)
                                                  ../cups/libcups.a(ipp.o)
_cupsNextDelay                                    ../cups/libcups.a(request.o)
_cupsRWInit                                       ../cups/libcups.a(thread.o)
_cupsRWLockRead                                   ../cups/libcups.a(thread.o)
_cupsRWLockWrite                                  ../cups/libcups.a(thread.o)
_cupsRWUnlock                                     ../cups/libcups.a(thread.o)
_cupsSetDefaults                                  ../cups/libcups.a(usersys.o)
                                                  ../cups/libcups.a(ipp-support.o)
                                                  ../cups/libcups.a(ipp.o)
_cupsSetError                                     ../cups/libcups.a(request.o)
                                                  ../cups/libcups.a(ipp.o)
                                                  ../cups/libcups.a(http-addrlist.o)
                                                  ../cups/libcups.a(http.o)
_cupsSetHTTPError                                 ../cups/libcups.a(request.o)
                                                  ../cups/libcups.a(ipp.o)
                                                  ../cups/libcups.a(http-addr.o)
                                                  ../cups/libcups.a(http.o)
_cupsSetLocale                                    ../cups/libcups.a(langprintf.o)
_cupsStrAlloc                                     ../cups/libcups.a(string.o)
                                                  ../cups/libcups.a(array.o)
                                                  ../cups/libcups.a(request.o)
                                                  ../cups/libcups.a(ipp.o)
                                                  ../cups/libcups.a(http.o)
_cupsStrDate                                      ../cups/libcups.a(string.o)
_cupsStrFlush                                     ../cups/libcups.a(string.o)
_cupsStrFormatd                                   ../cups/libcups.a(string.o)
_cupsStrFree                                      ../cups/libcups.a(string.o)
                                                  ../cups/libcups.a(array.o)
                                                  ../cups/libcups.a(request.o)
                                                  ../cups/libcups.a(ipp.o)
                                                  ../cups/libcups.a(http.o)
_cupsStrRetain                                    ../cups/libcups.a(string.o)
                                                  ../cups/libcups.a(ipp.o)
_cupsStrScand                                     ../cups/libcups.a(string.o)
                                                  ../cups/libcups.a(http.o)
_cupsStrStatistics                                ../cups/libcups.a(string.o)
_cupsThreadCancel                                 ../cups/libcups.a(thread.o)
_cupsThreadCreate                                 ../cups/libcups.a(thread.o)
_cupsThreadWait                                   ../cups/libcups.a(thread.o)
_cups_strcasecmp                                  ../cups/libcups.a(string.o)
                                                  ../cups/libcups.a(ipp-support.o)
                                                  ../cups/libcups.a(auth.o)
                                                  ../cups/libcups.a(usersys.o)
                                                  ../cups/libcups.a(request.o)
                                                  ../cups/libcups.a(language.o)
                                                  ../cups/libcups.a(ipp.o)
                                                  ../cups/libcups.a(http-support.o)
                                                  ../cups/libcups.a(http-addrlist.o)
                                                  ../cups/libcups.a(http.o)
_cups_strcpy                                      ../cups/libcups.a(string.o)
                                                  ../cups/libcups.a(file.o)
_cups_strlcat                                     ../cups/libcups.a(string.o)
                                                  ../cups/libcups.a(langprintf.o)
                                                  ../cups/libcups.a(http-addr.o)
_cups_strlcpy                                     ../cups/libcups.a(string.o)
                                                  ../cups/libcups.a(ipp-support.o)
                                                  ../cups/libcups.a(file.o)
                                                  ../cups/libcups.a(usersys.o)
                                                  ../cups/libcups.a(transcode.o)
                                                  ../cups/libcups.a(language.o)
                                                  ../cups/libcups.a(langprintf.o)
                                                  ../cups/libcups.a(ipp.o)
                                                  ../cups/libcups.a(http-support.o)
                                                  ../cups/libcups.a(http-addr.o)
                                                  ../cups/libcups.a(http.o)
_cups_strncasecmp                                 ../cups/libcups.a(string.o)
                                                  ../cups/libcups.a(auth.o)
                                                  ../cups/libcups.a(http.o)
_dist_code                                        /SDK/local/newlib/lib/libz.a(trees.o)
                                                  /SDK/local/newlib/lib/libz.a(deflate.o)
_httpAddrSetPort                                  ../cups/libcups.a(http-addr.o)
_httpDecodeURI                                    ../cups/libcups.a(http-support.o)
_httpDisconnect                                   ../cups/libcups.a(http.o)
_httpEncodeURI                                    ../cups/libcups.a(http-support.o)
                                                  ../cups/libcups.a(http.o)
_httpResolveURI                                   ../cups/libcups.a(http-support.o)
_httpStatus                                       ../cups/libcups.a(http-support.o)
_httpUpdate                                       ../cups/libcups.a(http.o)
                                                  ../cups/libcups.a(request.o)
_httpWait                                         ../cups/libcups.a(http.o)
                                                  ../cups/libcups.a(request.o)
_length_code                                      /SDK/local/newlib/lib/libz.a(trees.o)
                                                  /SDK/local/newlib/lib/libz.a(deflate.o)
_start                                            ipp_dev.o
_tr_align                                         /SDK/local/newlib/lib/libz.a(trees.o)
                                                  /SDK/local/newlib/lib/libz.a(deflate.o)
_tr_flush_bits                                    /SDK/local/newlib/lib/libz.a(trees.o)
                                                  /SDK/local/newlib/lib/libz.a(deflate.o)
_tr_flush_block                                   /SDK/local/newlib/lib/libz.a(trees.o)
                                                  /SDK/local/newlib/lib/libz.a(deflate.o)
_tr_init                                          /SDK/local/newlib/lib/libz.a(trees.o)
                                                  /SDK/local/newlib/lib/libz.a(deflate.o)
_tr_stored_block                                  /SDK/local/newlib/lib/libz.a(trees.o)
                                                  /SDK/local/newlib/lib/libz.a(deflate.o)
_tr_tally                                         /SDK/local/newlib/lib/libz.a(trees.o)
abort                                             /SDK/newlib/lib/libc.a(stub_abort.o)
                                                  /GCC/lib/gcc/ppc-amigaos/4.2.4/newlib/lib/libgcc_eh.a(unwind-sjlj.o)
                                                  /GCC/lib/gcc/ppc-amigaos/4.2.4/newlib/lib/libstdc++.a(vterminate.o)
                                                  /GCC/lib/gcc/ppc-amigaos/4.2.4/newlib/lib/libstdc++.a(eh_terminate.o)
                                                  /GCC/lib/gcc/ppc-amigaos/4.2.4/newlib/lib/libstdc++.a(eh_personality.o)
accept                                            /SDK/newlib/lib/libc.a(stub_accept.o)
                                                  ../cups/libcups.a(http.o)
access                                            /SDK/newlib/lib/libc.a(stub_access.o)
                                                  ../cups/libcups.a(file.o)
                                                  ../cups/libcups.a(language.o)
adler32                                           /SDK/local/newlib/lib/libz.a(adler32.o)
                                                  /SDK/local/newlib/lib/libz.a(inflate.o)
                                                  /SDK/local/newlib/lib/libz.a(deflate.o)
adler32_combine                                   /SDK/local/newlib/lib/libz.a(adler32.o)
adler32_combine64                                 /SDK/local/newlib/lib/libz.a(adler32.o)
adler32_z                                         /SDK/local/newlib/lib/libz.a(adler32.o)
atoi                                              /SDK/newlib/lib/libc.a(stub_atoi.o)
                                                  ../cups/libcups.a(usersys.o)
                                                  ../cups/libcups.a(http-addrlist.o)
                                                  ../cups/libcups.a(http.o)
                                                  ../ipr/iprutil.o
                                                  ../ipr/ipr.o
bind                                              /SDK/newlib/lib/libc.a(stub_bind.o)
                                                  ../cups/libcups.a(http-addr.o)
bool __gnu_cxx::operator==<char const*, std::string>(__gnu_cxx::__normal_iterator<char const*, std::string> const&, __gnu_cxx::__normal_iterator<char const*, std::string> const&) /GCC/lib/gcc/ppc-amigaos/4.2.4/newlib/lib/libstdc++.a(string-inst.o)
bool __gnu_cxx::operator==<char*, std::string>(__gnu_cxx::__normal_iterator<char*, std::string> const&, __gnu_cxx::__normal_iterator<char*, std::string> const&) /GCC/lib/gcc/ppc-amigaos/4.2.4/newlib/lib/libstdc++.a(string-inst.o)
bufferToFile                                      ../ipr/iprutil.o
calloc                                            /SDK/newlib/lib/libc.a(stub_calloc.o)
                                                  ../cups/libcups.a(file.o)
                                                  ../cups/libcups.a(array.o)
                                                  ../cups/libcups.a(string.o)
                                                  ../cups/libcups.a(language.o)
                                                  ../cups/libcups.a(ipp.o)
                                                  ../cups/libcups.a(http-addrlist.o)
                                                  ../cups/libcups.a(http.o)
char* std::string::_S_construct<__gnu_cxx::__normal_iterator<char*, std::string> >(__gnu_cxx::__normal_iterator<char*, std::string>, __gnu_cxx::__normal_iterator<char*, std::string>, std::allocator<char> const&, std::forward_iterator_tag) /GCC/lib/gcc/ppc-amigaos/4.2.4/newlib/lib/libstdc++.a(string-inst.o)
char* std::string::_S_construct<char const*>(char const*, char const*, std::allocator<char> const&, std::forward_iterator_tag) /GCC/lib/gcc/ppc-amigaos/4.2.4/newlib/lib/libstdc++.a(string-inst.o)
char* std::string::_S_construct<char*>(char*, char*, std::allocator<char> const&, std::forward_iterator_tag) /GCC/lib/gcc/ppc-amigaos/4.2.4/newlib/lib/libstdc++.a(string-inst.o)
close                                             /SDK/newlib/lib/libc.a(stub_close.o)
                                                  ../cups/libcups.a(file.o)
                                                  ../cups/libcups.a(request.o)
                                                  ../cups/libcups.a(http-addr.o)
                                                  ../ipr/ipr.o
connect                                           /SDK/newlib/lib/libc.a(stub_connect.o)
                                                  ../cups/libcups.a(http-addrlist.o)
crc32                                             /SDK/local/newlib/lib/libz.a(crc32.o)
                                                  /SDK/local/newlib/lib/libz.a(inflate.o)
                                                  /SDK/local/newlib/lib/libz.a(deflate.o)
                                                  ../cups/libcups.a(file.o)
crc32_combine                                     /SDK/local/newlib/lib/libz.a(crc32.o)
crc32_combine64                                   /SDK/local/newlib/lib/libz.a(crc32.o)
crc32_z                                           /SDK/local/newlib/lib/libz.a(crc32.o)
cupsArrayAdd                                      ../cups/libcups.a(array.o)
                                                  ../cups/libcups.a(ipp-support.o)
                                                  ../cups/libcups.a(string.o)
                                                  ../cups/libcups.a(language.o)
                                                  ../cups/libcups.a(http.o)
cupsArrayClear                                    ../cups/libcups.a(array.o)
cupsArrayCount                                    ../cups/libcups.a(array.o)
                                                  ../cups/libcups.a(usersys.o)
                                                  ../cups/libcups.a(http.o)
cupsArrayCurrent                                  ../cups/libcups.a(array.o)
cupsArrayDelete                                   ../cups/libcups.a(array.o)
                                                  ../cups/libcups.a(string.o)
                                                  ../cups/libcups.a(language.o)
                                                  ../cups/libcups.a(http.o)
cupsArrayDup                                      ../cups/libcups.a(array.o)
cupsArrayFind                                     ../cups/libcups.a(array.o)
                                                  ../cups/libcups.a(string.o)
                                                  ../cups/libcups.a(language.o)
cupsArrayFirst                                    ../cups/libcups.a(array.o)
                                                  ../cups/libcups.a(string.o)
                                                  ../cups/libcups.a(http.o)
cupsArrayGetIndex                                 ../cups/libcups.a(array.o)
cupsArrayGetInsert                                ../cups/libcups.a(array.o)
cupsArrayIndex                                    ../cups/libcups.a(array.o)
cupsArrayInsert                                   ../cups/libcups.a(array.o)
cupsArrayLast                                     ../cups/libcups.a(array.o)
cupsArrayNew                                      ../cups/libcups.a(array.o)
                                                  ../cups/libcups.a(ipp-support.o)
                                                  ../cups/libcups.a(string.o)
cupsArrayNew2                                     ../cups/libcups.a(array.o)
cupsArrayNew3                                     ../cups/libcups.a(array.o)
                                                  ../cups/libcups.a(language.o)
cupsArrayNext                                     ../cups/libcups.a(array.o)
                                                  ../cups/libcups.a(string.o)
                                                  ../cups/libcups.a(http.o)
cupsArrayPrev                                     ../cups/libcups.a(array.o)
cupsArrayRemove                                   ../cups/libcups.a(array.o)
                                                  ../cups/libcups.a(string.o)
                                                  ../cups/libcups.a(http.o)
cupsArrayRestore                                  ../cups/libcups.a(array.o)
cupsArraySave                                     ../cups/libcups.a(array.o)
cupsArrayUserData                                 ../cups/libcups.a(array.o)
cupsCharsetToUTF8                                 ../cups/libcups.a(transcode.o)
                                                  ../cups/libcups.a(string.o)
                                                  ../cups/libcups.a(langprintf.o)
cupsDoAuthentication                              ../cups/libcups.a(auth.o)
                                                  ../cups/libcups.a(request.o)
cupsDoFileRequest                                 ../cups/libcups.a(request.o)
                                                  ../ipr/ipr.o
cupsDoIORequest                                   ../cups/libcups.a(request.o)
cupsDoRequest                                     ../cups/libcups.a(request.o)
cupsEncryption                                    ../cups/libcups.a(usersys.o)
                                                  ../cups/libcups.a(request.o)
cupsFileClose                                     ../cups/libcups.a(file.o)
                                                  ../cups/libcups.a(usersys.o)
                                                  ../cups/libcups.a(language.o)
cupsFileCompression                               ../cups/libcups.a(file.o)
cupsFileEOF                                       ../cups/libcups.a(file.o)
cupsFileFind                                      ../cups/libcups.a(file.o)
cupsFileFlush                                     ../cups/libcups.a(file.o)
cupsFileGetChar                                   ../cups/libcups.a(file.o)
cupsFileGetConf                                   ../cups/libcups.a(file.o)
                                                  ../cups/libcups.a(usersys.o)
cupsFileGetLine                                   ../cups/libcups.a(file.o)
cupsFileGets                                      ../cups/libcups.a(file.o)
                                                  ../cups/libcups.a(language.o)
cupsFileLock                                      ../cups/libcups.a(file.o)
cupsFileNumber                                    ../cups/libcups.a(file.o)
cupsFileOpen                                      ../cups/libcups.a(file.o)
                                                  ../cups/libcups.a(usersys.o)
                                                  ../cups/libcups.a(language.o)
cupsFileOpenFd                                    ../cups/libcups.a(file.o)
cupsFilePeekChar                                  ../cups/libcups.a(file.o)
cupsFilePrintf                                    ../cups/libcups.a(file.o)
cupsFilePutChar                                   ../cups/libcups.a(file.o)
cupsFilePutConf                                   ../cups/libcups.a(file.o)
cupsFilePuts                                      ../cups/libcups.a(file.o)
cupsFileRead                                      ../cups/libcups.a(file.o)
cupsFileRewind                                    ../cups/libcups.a(file.o)
cupsFileSeek                                      ../cups/libcups.a(file.o)
cupsFileStderr                                    ../cups/libcups.a(file.o)
cupsFileStdin                                     ../cups/libcups.a(file.o)
cupsFileStdout                                    ../cups/libcups.a(file.o)
cupsFileTell                                      ../cups/libcups.a(file.o)
cupsFileUnlock                                    ../cups/libcups.a(file.o)
cupsFileWrite                                     ../cups/libcups.a(file.o)
cupsGetPassword                                   ../cups/libcups.a(usersys.o)
cupsGetPassword2                                  ../cups/libcups.a(usersys.o)
                                                  ../cups/libcups.a(auth.o)
cupsGetResponse                                   ../cups/libcups.a(request.o)
cupsLangDefault                                   ../cups/libcups.a(language.o)
                                                  ../cups/libcups.a(file.o)
                                                  ../cups/libcups.a(auth.o)
                                                  ../cups/libcups.a(string.o)
                                                  ../cups/libcups.a(request.o)
                                                  ../cups/libcups.a(langprintf.o)
                                                  ../cups/libcups.a(ipp.o)
                                                  ../cups/libcups.a(http-support.o)
cupsLangEncoding                                  ../cups/libcups.a(language.o)
cupsLangFlush                                     ../cups/libcups.a(language.o)
cupsLangFree                                      ../cups/libcups.a(language.o)
cupsLangGet                                       ../cups/libcups.a(language.o)
cupsLastError                                     ../cups/libcups.a(request.o)
cupsLastErrorString                               ../cups/libcups.a(request.o)
cupsReadResponseData                              ../cups/libcups.a(request.o)
cupsSendRequest                                   ../cups/libcups.a(request.o)
cupsServer                                        ../cups/libcups.a(usersys.o)
                                                  ../cups/libcups.a(request.o)
cupsSetClientCertCB                               ../cups/libcups.a(usersys.o)
cupsSetCredentials                                ../cups/libcups.a(usersys.o)
cupsSetEncryption                                 ../cups/libcups.a(usersys.o)
cupsSetPasswordCB                                 ../cups/libcups.a(usersys.o)
cupsSetPasswordCB2                                ../cups/libcups.a(usersys.o)
cupsSetServer                                     ../cups/libcups.a(usersys.o)
cupsSetServerCertCB                               ../cups/libcups.a(usersys.o)
cupsSetUser                                       ../cups/libcups.a(usersys.o)
                                                  ../cups/libcups.a(auth.o)
cupsSetUserAgent                                  ../cups/libcups.a(usersys.o)
cupsUTF32ToUTF8                                   ../cups/libcups.a(transcode.o)
cupsUTF8ToCharset                                 ../cups/libcups.a(transcode.o)
                                                  ../cups/libcups.a(langprintf.o)
cupsUTF8ToUTF32                                   ../cups/libcups.a(transcode.o)
cupsUser                                          ../cups/libcups.a(usersys.o)
                                                  ../cups/libcups.a(auth.o)
cupsUserAgent                                     ../cups/libcups.a(usersys.o)
                                                  ../cups/libcups.a(http.o)
cupsWriteRequestData                              ../cups/libcups.a(request.o)
defineAdd                                         ../ipr/iprutil.o
                                                  ../ipr/ipr.o
defineClean                                       ../ipr/iprutil.o
defineGet                                         ../ipr/iprutil.o
                                                  ../ipr/ipr.o
deflate                                           /SDK/local/newlib/lib/libz.a(deflate.o)
                                                  ../cups/libcups.a(file.o)
                                                  ../cups/libcups.a(http.o)
deflateBound                                      /SDK/local/newlib/lib/libz.a(deflate.o)
deflateCopy                                       /SDK/local/newlib/lib/libz.a(deflate.o)
deflateEnd                                        /SDK/local/newlib/lib/libz.a(deflate.o)
                                                  ../cups/libcups.a(file.o)
                                                  ../cups/libcups.a(http.o)
deflateGetDictionary                              /SDK/local/newlib/lib/libz.a(deflate.o)
deflateInit2_                                     /SDK/local/newlib/lib/libz.a(deflate.o)
                                                  ../cups/libcups.a(file.o)
                                                  ../cups/libcups.a(http.o)
deflateInit_                                      /SDK/local/newlib/lib/libz.a(deflate.o)
deflateParams                                     /SDK/local/newlib/lib/libz.a(deflate.o)
deflatePending                                    /SDK/local/newlib/lib/libz.a(deflate.o)
deflatePrime                                      /SDK/local/newlib/lib/libz.a(deflate.o)
deflateReset                                      /SDK/local/newlib/lib/libz.a(deflate.o)
deflateResetKeep                                  /SDK/local/newlib/lib/libz.a(deflate.o)
deflateSetDictionary                              /SDK/local/newlib/lib/libz.a(deflate.o)
deflateSetHeader                                  /SDK/local/newlib/lib/libz.a(deflate.o)
deflateTune                                       /SDK/local/newlib/lib/libz.a(deflate.o)
deflate_copyright                                 /SDK/local/newlib/lib/libz.a(deflate.o)
displayOptions()                                  ../ipr/ipr.o
dumpMessage(_ipp_s*)                              ../ipr/ipr.o
errCodeToString                                   ../ipr/iprutil.o
                                                  ../ipr/ipr.o
fclose                                            /SDK/newlib/lib/libc.a(stub_fclose.o)
                                                  ../cups/libcups.a(auth.o)
                                                  ../ipr/iprutil.o
fcntl                                             /SDK/newlib/lib/libc.a(stub_fcntl.o)
                                                  ../cups/libcups.a(file.o)
                                                  ../cups/libcups.a(http-addrlist.o)
                                                  ../cups/libcups.a(http-addr.o)
                                                  ../cups/libcups.a(http.o)
feof                                              /SDK/newlib/lib/libc.a(stub_feof.o)
                                                  ../ipr/iprutil.o
fflush                                            /SDK/newlib/lib/libc.a(stub_fflush.o)
                                                  ../cups/libcups.a(file.o)
fgets                                             /SDK/newlib/lib/libc.a(stub_fgets.o)
                                                  ../cups/libcups.a(auth.o)
fileToBuffer                                      ../ipr/iprutil.o
fmod                                              /SDK/newlib/lib/libc.a(stub_fmod.o)
                                                  ../cups/libcups.a(http.o)
fopen                                             /SDK/newlib/lib/libc.a(stub_fopen.o)
                                                  ../cups/libcups.a(auth.o)
                                                  ../ipr/iprutil.o
fprintf                                           /SDK/newlib/lib/libc.a(stub_fprintf.o)
                                                  ../cups/libcups.a(file.o)
                                                  ../ipr/AttrGroups.o
                                                  ../ipr/ipr.o
fputc                                             /SDK/newlib/lib/libc.a(stub_fputc.o)
                                                  /GCC/lib/gcc/ppc-amigaos/4.2.4/newlib/lib/libstdc++.a(vterminate.o)
fputs                                             /SDK/newlib/lib/libc.a(stub_fputs.o)
                                                  /GCC/lib/gcc/ppc-amigaos/4.2.4/newlib/lib/libstdc++.a(vterminate.o)
fread                                             /SDK/newlib/lib/libc.a(stub_fread.o)
                                                  ../ipr/iprutil.o
free                                              /SDK/newlib/lib/libc.a(stub_free.o)
                                                  /GCC/lib/gcc/ppc-amigaos/4.2.4/newlib/lib/libstdc++.a(cp-demangle.o)
                                                  /GCC/lib/gcc/ppc-amigaos/4.2.4/newlib/lib/libstdc++.a(vterminate.o)
                                                  /GCC/lib/gcc/ppc-amigaos/4.2.4/newlib/lib/libstdc++.a(eh_alloc.o)
                                                  /GCC/lib/gcc/ppc-amigaos/4.2.4/newlib/lib/libstdc++.a(del_op.o)
                                                  /SDK/local/newlib/lib/libregex.a(regfree.o)
                                                  /SDK/local/newlib/lib/libregex.a(regexec.o)
                                                  /SDK/local/newlib/lib/libregex.a(regcomp.o)
                                                  /SDK/local/newlib/lib/libz.a(zutil.o)
                                                  ../cups/libcups.a(file.o)
                                                  ../cups/libcups.a(array.o)
                                                  ../cups/libcups.a(string.o)
                                                  ../cups/libcups.a(language.o)
                                                  ../cups/libcups.a(ipp.o)
                                                  ../cups/libcups.a(http-addrlist.o)
                                                  ../cups/libcups.a(http.o)
fseek                                             /SDK/newlib/lib/libc.a(stub_fseek.o)
                                                  ../ipr/iprutil.o
fstat                                             /SDK/newlib/lib/libc.a(stub_fstat.o)
                                                  ../cups/libcups.a(file.o)
                                                  ../cups/libcups.a(request.o)
                                                  ../ipr/ipr.o
ftell                                             /SDK/newlib/lib/libc.a(stub_ftell.o)
                                                  ../ipr/iprutil.o
ftruncate                                         /SDK/newlib/lib/libc.a(stub_ftruncate.o)
                                                  ../cups/libcups.a(file.o)
fwrite                                            /SDK/newlib/lib/libc.a(stub_fwrite.o)
                                                  /GCC/lib/gcc/ppc-amigaos/4.2.4/newlib/lib/libstdc++.a(vterminate.o)
                                                  ../cups/libcups.a(file.o)
                                                  ../cups/libcups.a(thread.o)
                                                  ../cups/libcups.a(langprintf.o)
                                                  ../ipr/iprutil.o
                                                  ../ipr/ipr.o
g_options                                         ../ipr/ipr.o
g_tmplFile                                        ../ipr/ipr.o
get_crc_table                                     /SDK/local/newlib/lib/libz.a(crc32.o)
getenv                                            /SDK/newlib/lib/libc.a(stub_getenv.o)
                                                  ../cups/libcups.a(globals.o)
                                                  ../cups/libcups.a(usersys.o)
                                                  ../cups/libcups.a(language.o)
                                                  ../ipr/ipr.o
gethostbyaddr                                     /SDK/newlib/lib/libc.a(stub_gethostbyaddr.o)
                                                  ../cups/libcups.a(http-addr.o)
gethostbyname                                     /SDK/newlib/lib/libc.a(stub_gethostbyname.o)
                                                  ../cups/libcups.a(http-addrlist.o)
                                                  ../cups/libcups.a(http-addr.o)
gethostname                                       /SDK/newlib/lib/libc.a(stub_gethostname.o)
                                                  ../cups/libcups.a(http-addr.o)
getpid                                            /SDK/newlib/lib/libc.a(stub_getpid.o)
                                                  ../cups/libcups.a(auth.o)
getpwnam                                          /SDK/newlib/lib/libc.a(stub_getpwnam.o)
                                                  ../cups/libcups.a(usersys.o)
getpwuid                                          /SDK/newlib/lib/libc.a(stub_getpwuid.o)
                                                  ../cups/libcups.a(usersys.o)
getservbyname                                     /SDK/newlib/lib/libc.a(stub_getservbyname.o)
                                                  ../cups/libcups.a(http-addrlist.o)
getuid                                            /SDK/newlib/lib/libc.a(stub_getuid.o)
                                                  ../cups/libcups.a(globals.o)
                                                  ../cups/libcups.a(usersys.o)
gmtime                                            /SDK/newlib/lib/libc.a(stub_gmtime.o)
                                                  ../cups/libcups.a(ipp.o)
                                                  ../cups/libcups.a(http-support.o)
hex_dump(unsigned char*, int)                     ../ipr/ipr.o
hstrerror                                         /SDK/newlib/lib/libc.a(stub_hstrerror.o)
                                                  ../cups/libcups.a(http-addrlist.o)
httpAcceptConnection                              ../cups/libcups.a(http.o)
httpAddCredential                                 ../cups/libcups.a(http.o)
httpAddrAny                                       ../cups/libcups.a(http-addr.o)
httpAddrClose                                     ../cups/libcups.a(http-addr.o)
                                                  ../cups/libcups.a(file.o)
                                                  ../cups/libcups.a(http-addrlist.o)
                                                  ../cups/libcups.a(http.o)
httpAddrConnect                                   ../cups/libcups.a(http-addrlist.o)
                                                  ../cups/libcups.a(file.o)
httpAddrConnect2                                  ../cups/libcups.a(http-addrlist.o)
                                                  ../cups/libcups.a(http.o)
httpAddrCopyList                                  ../cups/libcups.a(http-addrlist.o)
                                                  ../cups/libcups.a(http.o)
httpAddrEqual                                     ../cups/libcups.a(http-addr.o)
httpAddrFamily                                    ../cups/libcups.a(http-addr.o)
                                                  ../cups/libcups.a(http-addrlist.o)
httpAddrFreeList                                  ../cups/libcups.a(http-addrlist.o)
                                                  ../cups/libcups.a(file.o)
                                                  ../cups/libcups.a(http.o)
httpAddrGetList                                   ../cups/libcups.a(http-addrlist.o)
                                                  ../cups/libcups.a(file.o)
                                                  ../cups/libcups.a(http.o)
httpAddrLength                                    ../cups/libcups.a(http-addr.o)
                                                  ../cups/libcups.a(http-addrlist.o)
httpAddrListen                                    ../cups/libcups.a(http-addr.o)
httpAddrLocalhost                                 ../cups/libcups.a(http-addr.o)
                                                  ../cups/libcups.a(auth.o)
                                                  ../cups/libcups.a(http.o)
httpAddrLookup                                    ../cups/libcups.a(http-addr.o)
httpAddrPort                                      ../cups/libcups.a(http-addr.o)
                                                  ../cups/libcups.a(request.o)
                                                  ../cups/libcups.a(http.o)
httpAddrString                                    ../cups/libcups.a(http-addr.o)
                                                  ../cups/libcups.a(http.o)
httpAssembleURI                                   ../cups/libcups.a(http-support.o)
httpAssembleURIf                                  ../cups/libcups.a(http-support.o)
httpAssembleUUID                                  ../cups/libcups.a(http-support.o)
httpBlocking                                      ../cups/libcups.a(http.o)
httpCheck                                         ../cups/libcups.a(http.o)
                                                  ../cups/libcups.a(request.o)
httpClearCookie                                   ../cups/libcups.a(http.o)
httpClearFields                                   ../cups/libcups.a(http.o)
                                                  ../cups/libcups.a(request.o)
httpClose                                         ../cups/libcups.a(http.o)
                                                  ../cups/libcups.a(usersys.o)
                                                  ../cups/libcups.a(request.o)
httpCompareCredentials                            ../cups/libcups.a(http.o)
httpConnect                                       ../cups/libcups.a(http.o)
                                                  ../ipr/ipr.o
httpConnect2                                      ../cups/libcups.a(http.o)
                                                  ../cups/libcups.a(request.o)
httpConnectEncrypt                                ../cups/libcups.a(http.o)
httpDecode64                                      ../cups/libcups.a(http-support.o)
httpDecode64_2                                    ../cups/libcups.a(http-support.o)
httpDelete                                        ../cups/libcups.a(http.o)
httpEncode64                                      ../cups/libcups.a(http-support.o)
httpEncode64_2                                    ../cups/libcups.a(http-support.o)
                                                  ../cups/libcups.a(auth.o)
httpEncryption                                    ../cups/libcups.a(http.o)
                                                  ../cups/libcups.a(usersys.o)
httpError                                         ../cups/libcups.a(http.o)
httpFieldValue                                    ../cups/libcups.a(http.o)
httpFlush                                         ../cups/libcups.a(http.o)
                                                  ../cups/libcups.a(request.o)
httpFlushWrite                                    ../cups/libcups.a(http.o)
httpFreeCredentials                               ../cups/libcups.a(http.o)
httpGet                                           ../cups/libcups.a(http.o)
httpGetActivity                                   ../cups/libcups.a(http.o)
httpGetAddress                                    ../cups/libcups.a(http-addr.o)
httpGetAuthString                                 ../cups/libcups.a(http.o)
httpGetBlocking                                   ../cups/libcups.a(http.o)
httpGetContentEncoding                            ../cups/libcups.a(http.o)
httpGetCookie                                     ../cups/libcups.a(http.o)
httpGetDateString                                 ../cups/libcups.a(http-support.o)
                                                  ../cups/libcups.a(http.o)
httpGetDateString2                                ../cups/libcups.a(http-support.o)
httpGetDateTime                                   ../cups/libcups.a(http-support.o)
httpGetEncryption                                 ../cups/libcups.a(http.o)
httpGetExpect                                     ../cups/libcups.a(http.o)
httpGetFd                                         ../cups/libcups.a(http.o)
httpGetField                                      ../cups/libcups.a(http.o)
httpGetHostByName                                 ../cups/libcups.a(http-addr.o)
httpGetHostname                                   ../cups/libcups.a(http-addr.o)
httpGetKeepAlive                                  ../cups/libcups.a(http.o)
httpGetLength                                     ../cups/libcups.a(http.o)
httpGetLength2                                    ../cups/libcups.a(http.o)
httpGetPending                                    ../cups/libcups.a(http.o)
httpGetReady                                      ../cups/libcups.a(http.o)
httpGetRemaining                                  ../cups/libcups.a(http.o)
httpGetState                                      ../cups/libcups.a(http.o)
httpGetStatus                                     ../cups/libcups.a(http.o)
                                                  ../cups/libcups.a(request.o)
httpGetSubField                                   ../cups/libcups.a(http.o)
                                                  ../cups/libcups.a(auth.o)
httpGetSubField2                                  ../cups/libcups.a(http.o)
                                                  ../cups/libcups.a(auth.o)
httpGetVersion                                    ../cups/libcups.a(http.o)
httpGets                                          ../cups/libcups.a(http.o)
httpHead                                          ../cups/libcups.a(http.o)
httpInitialize                                    ../cups/libcups.a(http.o)
httpIsChunked                                     ../cups/libcups.a(http.o)
httpIsEncrypted                                   ../cups/libcups.a(http.o)
httpMD5                                           ../cups/libcups.a(md5passwd.o)
                                                  ../cups/libcups.a(auth.o)
httpMD5Final                                      ../cups/libcups.a(md5passwd.o)
                                                  ../cups/libcups.a(auth.o)
httpMD5String                                     ../cups/libcups.a(md5passwd.o)
httpOptions                                       ../cups/libcups.a(http.o)
httpPeek                                          ../cups/libcups.a(http.o)
httpPost                                          ../cups/libcups.a(http.o)
                                                  ../cups/libcups.a(request.o)
httpPrintf                                        ../cups/libcups.a(http.o)
httpPut                                           ../cups/libcups.a(http.o)
httpRead                                          ../cups/libcups.a(http.o)
httpRead2                                         ../cups/libcups.a(http.o)
                                                  ../cups/libcups.a(request.o)
                                                  ../cups/libcups.a(ipp.o)
httpReadRequest                                   ../cups/libcups.a(http.o)
httpReconnect                                     ../cups/libcups.a(http.o)
httpReconnect2                                    ../cups/libcups.a(http.o)
                                                  ../cups/libcups.a(request.o)
httpResolveHostname                               ../cups/libcups.a(http-addr.o)
httpSeparate                                      ../cups/libcups.a(http-support.o)
                                                  ../ipr/ipr.o
httpSeparate2                                     ../cups/libcups.a(http-support.o)
httpSeparateURI                                   ../cups/libcups.a(http-support.o)
                                                  ../cups/libcups.a(ipp.o)
httpSetAuthString                                 ../cups/libcups.a(http.o)
                                                  ../cups/libcups.a(auth.o)
                                                  ../cups/libcups.a(request.o)
httpSetCookie                                     ../cups/libcups.a(http.o)
httpSetCredentials                                ../cups/libcups.a(http.o)
httpSetDefaultField                               ../cups/libcups.a(http.o)
httpSetExpect                                     ../cups/libcups.a(http.o)
                                                  ../cups/libcups.a(request.o)
httpSetField                                      ../cups/libcups.a(http.o)
                                                  ../cups/libcups.a(request.o)
httpSetKeepAlive                                  ../cups/libcups.a(http.o)
httpSetLength                                     ../cups/libcups.a(http.o)
                                                  ../cups/libcups.a(request.o)
httpSetTimeout                                    ../cups/libcups.a(http.o)
httpShutdown                                      ../cups/libcups.a(http.o)
httpStateString                                   ../cups/libcups.a(http-support.o)
httpStatus                                        ../cups/libcups.a(http-support.o)
                                                  ../cups/libcups.a(request.o)
                                                  ../cups/libcups.a(http.o)
httpTrace                                         ../cups/libcups.a(http.o)
httpURIStatusString                               ../cups/libcups.a(http-support.o)
httpUpdate                                        ../cups/libcups.a(http.o)
                                                  ../cups/libcups.a(request.o)
httpWait                                          ../cups/libcups.a(http.o)
                                                  ../cups/libcups.a(request.o)
                                                  ../cups/libcups.a(ipp.o)
httpWrite                                         ../cups/libcups.a(http.o)
httpWrite2                                        ../cups/libcups.a(http.o)
                                                  ../cups/libcups.a(request.o)
                                                  ../cups/libcups.a(ipp.o)
httpWriteResponse                                 ../cups/libcups.a(http.o)
inflate                                           /SDK/local/newlib/lib/libz.a(inflate.o)
                                                  ../cups/libcups.a(file.o)
                                                  ../cups/libcups.a(http.o)
inflateCodesUsed                                  /SDK/local/newlib/lib/libz.a(inflate.o)
inflateCopy                                       /SDK/local/newlib/lib/libz.a(inflate.o)
inflateEnd                                        /SDK/local/newlib/lib/libz.a(inflate.o)
                                                  ../cups/libcups.a(file.o)
                                                  ../cups/libcups.a(http.o)
inflateGetDictionary                              /SDK/local/newlib/lib/libz.a(inflate.o)
inflateGetHeader                                  /SDK/local/newlib/lib/libz.a(inflate.o)
inflateInit2_                                     /SDK/local/newlib/lib/libz.a(inflate.o)
                                                  ../cups/libcups.a(file.o)
                                                  ../cups/libcups.a(http.o)
inflateInit_                                      /SDK/local/newlib/lib/libz.a(inflate.o)
inflateMark                                       /SDK/local/newlib/lib/libz.a(inflate.o)
inflatePrime                                      /SDK/local/newlib/lib/libz.a(inflate.o)
inflateReset                                      /SDK/local/newlib/lib/libz.a(inflate.o)
inflateReset2                                     /SDK/local/newlib/lib/libz.a(inflate.o)
inflateResetKeep                                  /SDK/local/newlib/lib/libz.a(inflate.o)
inflateSetDictionary                              /SDK/local/newlib/lib/libz.a(inflate.o)
inflateSync                                       /SDK/local/newlib/lib/libz.a(inflate.o)
inflateSyncPoint                                  /SDK/local/newlib/lib/libz.a(inflate.o)
inflateUndermine                                  /SDK/local/newlib/lib/libz.a(inflate.o)
inflateValidate                                   /SDK/local/newlib/lib/libz.a(inflate.o)
inflate_copyright                                 /SDK/local/newlib/lib/libz.a(inftrees.o)
inflate_fast                                      /SDK/local/newlib/lib/libz.a(inffast.o)
                                                  /SDK/local/newlib/lib/libz.a(inflate.o)
inflate_table                                     /SDK/local/newlib/lib/libz.a(inftrees.o)
                                                  /SDK/local/newlib/lib/libz.a(inflate.o)
ippAddBoolean                                     ../cups/libcups.a(ipp.o)
ippAddBooleans                                    ../cups/libcups.a(ipp.o)
ippAddCollection                                  ../cups/libcups.a(ipp.o)
ippAddCollections                                 ../cups/libcups.a(ipp.o)
ippAddDate                                        ../cups/libcups.a(ipp.o)
ippAddInteger                                     ../cups/libcups.a(ipp.o)
                                                  ../ipr/ipr.o
ippAddIntegers                                    ../cups/libcups.a(ipp.o)
ippAddOctetString                                 ../cups/libcups.a(ipp.o)
ippAddOutOfBand                                   ../cups/libcups.a(ipp.o)
ippAddRange                                       ../cups/libcups.a(ipp.o)
ippAddRanges                                      ../cups/libcups.a(ipp.o)
ippAddResolution                                  ../cups/libcups.a(ipp.o)
ippAddResolutions                                 ../cups/libcups.a(ipp.o)
ippAddSeparator                                   ../cups/libcups.a(ipp.o)
ippAddString                                      ../cups/libcups.a(ipp.o)
                                                  ../ipr/iprutil.o
                                                  ../ipr/ipr.o
ippAddStringf                                     ../cups/libcups.a(ipp.o)
ippAddStringfv                                    ../cups/libcups.a(ipp.o)
ippAddStrings                                     ../cups/libcups.a(ipp.o)
ippAttributeString                                ../cups/libcups.a(ipp-support.o)
ippContainsInteger                                ../cups/libcups.a(ipp.o)
ippContainsString                                 ../cups/libcups.a(ipp.o)
ippCopyAttribute                                  ../cups/libcups.a(ipp.o)
ippCopyAttributes                                 ../cups/libcups.a(ipp.o)
ippCreateRequestedArray                           ../cups/libcups.a(ipp-support.o)
ippCreateWithHeader                               ../ipr/iprutil.o
                                                  ../ipr/ipr.o
ippDateToTime                                     ../cups/libcups.a(ipp.o)
                                                  ../ipr/AttrGroups.o
ippDelete                                         ../cups/libcups.a(ipp.o)
                                                  ../cups/libcups.a(request.o)
                                                  ../ipr/ipr.o
ippDeleteAttribute                                ../cups/libcups.a(ipp.o)
ippDeleteValues                                   ../cups/libcups.a(ipp.o)
ippEnumString                                     ../cups/libcups.a(ipp-support.o)
ippEnumValue                                      ../cups/libcups.a(ipp-support.o)
ippErrorString                                    ../cups/libcups.a(ipp-support.o)
                                                  ../cups/libcups.a(request.o)
ippErrorValue                                     ../cups/libcups.a(ipp-support.o)
ippFindAttribute                                  ../cups/libcups.a(ipp.o)
                                                  ../cups/libcups.a(ipp-support.o)
                                                  ../cups/libcups.a(request.o)
                                                  ../ipr/ipr.o
ippFindNextAttribute                              ../cups/libcups.a(ipp.o)
ippFirstAttribute                                 ../cups/libcups.a(ipp.o)
ippGetBoolean                                     ../cups/libcups.a(ipp.o)
ippGetCollection                                  ../cups/libcups.a(ipp.o)
ippGetCount                                       ../cups/libcups.a(ipp.o)
                                                  ../cups/libcups.a(ipp-support.o)
ippGetDate                                        ../cups/libcups.a(ipp.o)
ippGetGroupTag                                    ../cups/libcups.a(ipp.o)
ippGetInteger                                     ../cups/libcups.a(ipp.o)
ippGetName                                        ../cups/libcups.a(ipp.o)
ippGetOctetString                                 ../cups/libcups.a(ipp.o)
ippGetOperation                                   ../cups/libcups.a(ipp.o)
                                                  ../cups/libcups.a(ipp-support.o)
ippGetRange                                       ../cups/libcups.a(ipp.o)
ippGetRequestId                                   ../cups/libcups.a(ipp.o)
ippGetResolution                                  ../cups/libcups.a(ipp.o)
ippGetState                                       ../cups/libcups.a(ipp.o)
ippGetStatusCode                                  ../cups/libcups.a(ipp.o)
ippGetString                                      ../cups/libcups.a(ipp.o)
                                                  ../cups/libcups.a(ipp-support.o)
ippGetValueTag                                    ../cups/libcups.a(ipp.o)
ippGetVersion                                     ../cups/libcups.a(ipp.o)
ippIsAttributeString                              ../ipr/iprutil.o
ippLength                                         ../cups/libcups.a(ipp.o)
                                                  ../cups/libcups.a(request.o)
ippMessageSetAttr                                 ../ipr/iprutil.o
ippNameToType                                     ../ipr/iprutil.o
ippNew                                            ../cups/libcups.a(ipp.o)
                                                  ../cups/libcups.a(request.o)
                                                  ../ipr/iprutil.o
ippNewRequest                                     ../cups/libcups.a(ipp.o)
ippNewResponse                                    ../cups/libcups.a(ipp.o)
ippNextAttribute                                  ../cups/libcups.a(ipp.o)
ippOpString                                       ../cups/libcups.a(ipp-support.o)
ippOpValue                                        ../cups/libcups.a(ipp-support.o)
ippPort                                           ../cups/libcups.a(ipp-support.o)
                                                  ../cups/libcups.a(request.o)
ippRead                                           ../cups/libcups.a(ipp.o)
                                                  ../cups/libcups.a(request.o)
ippReadFile                                       ../cups/libcups.a(ipp.o)
ippReadIO                                         ../cups/libcups.a(ipp.o)
ippSetBoolean                                     ../cups/libcups.a(ipp.o)
ippSetCollection                                  ../cups/libcups.a(ipp.o)
ippSetDate                                        ../cups/libcups.a(ipp.o)
ippSetGroupTag                                    ../cups/libcups.a(ipp.o)
ippSetInteger                                     ../cups/libcups.a(ipp.o)
ippSetName                                        ../cups/libcups.a(ipp.o)
ippSetOctetString                                 ../cups/libcups.a(ipp.o)
ippSetOperation                                   ../cups/libcups.a(ipp.o)
ippSetPort                                        ../cups/libcups.a(ipp-support.o)
ippSetRange                                       ../cups/libcups.a(ipp.o)
ippSetRequestId                                   ../cups/libcups.a(ipp.o)
ippSetResolution                                  ../cups/libcups.a(ipp.o)
ippSetState                                       ../cups/libcups.a(ipp.o)
ippSetStatusCode                                  ../cups/libcups.a(ipp.o)
ippSetString                                      ../cups/libcups.a(ipp.o)
ippSetStringf                                     ../cups/libcups.a(ipp.o)
ippSetStringfv                                    ../cups/libcups.a(ipp.o)
ippSetValueTag                                    ../cups/libcups.a(ipp.o)
ippSetVersion                                     ../cups/libcups.a(ipp.o)
ippStateString                                    ../cups/libcups.a(ipp-support.o)
ippTagString                                      ../cups/libcups.a(ipp-support.o)
ippTagValue                                       ../cups/libcups.a(ipp-support.o)
ippTimeToDate                                     ../cups/libcups.a(ipp.o)
ippValidateAttribute                              ../cups/libcups.a(ipp.o)
ippValidateAttributes                             ../cups/libcups.a(ipp.o)
ippWrite                                          ../cups/libcups.a(ipp.o)
                                                  ../cups/libcups.a(request.o)
ippWriteFile                                      ../cups/libcups.a(ipp.o)
ippWriteIO                                        ../cups/libcups.a(ipp.o)
                                                  ../ipr/ipr.o
ipp_print_file                                    ../ipr/ipr.o
                                                  ipp_dev.o
listen                                            /SDK/newlib/lib/libc.a(stub_listen.o)
                                                  ../cups/libcups.a(http-addr.o)
loadOptions                                       ../ipr/iprutil.o
                                                  ../ipr/ipr.o
loadOptionsBuffer                                 ../ipr/iprutil.o
                                                  ../ipr/ipr.o
localeconv                                        /SDK/newlib/lib/libc.a(stub_localeconv.o)
                                                  ../cups/libcups.a(http.o)
localtime                                         /SDK/newlib/lib/libc.a(stub_localtime.o)
                                                  ../cups/libcups.a(string.o)
                                                  ../ipr/AttrGroups.o
lseek                                             /SDK/newlib/lib/libc.a(stub_lseek.o)
                                                  ../cups/libcups.a(file.o)
                                                  ../cups/libcups.a(request.o)
lstat                                             /SDK/newlib/lib/libc.a(stub_lstat.o)
                                                  ../cups/libcups.a(file.o)
main                                              ../ipr/ipr.o
malloc                                            /SDK/newlib/lib/libc.a(stub_malloc.o)
                                                  /GCC/lib/gcc/ppc-amigaos/4.2.4/newlib/lib/libstdc++.a(cp-demangle.o)
                                                  /GCC/lib/gcc/ppc-amigaos/4.2.4/newlib/lib/libstdc++.a(new_op.o)
                                                  /GCC/lib/gcc/ppc-amigaos/4.2.4/newlib/lib/libstdc++.a(eh_alloc.o)
                                                  /SDK/local/newlib/lib/libregex.a(regexec.o)
                                                  /SDK/local/newlib/lib/libregex.a(regcomp.o)
                                                  /SDK/local/newlib/lib/libz.a(zutil.o)
                                                  ../cups/libcups.a(globals.o)
                                                  ../cups/libcups.a(file.o)
                                                  ../cups/libcups.a(array.o)
                                                  ../cups/libcups.a(ipp.o)
                                                  ../cups/libcups.a(http-addrlist.o)
                                                  ../cups/libcups.a(http.o)
                                                  ../ipr/iprutil.o
memchr                                            /SDK/newlib/lib/libc.a(stub_memchr.o)
                                                  /GCC/lib/gcc/ppc-amigaos/4.2.4/newlib/lib/libstdc++.a(string-inst.o)
memcmp                                            /SDK/newlib/lib/libc.a(stub_memcmp.o)
                                                  /GCC/lib/gcc/ppc-amigaos/4.2.4/newlib/lib/libstdc++.a(cp-demangle.o)
                                                  /GCC/lib/gcc/ppc-amigaos/4.2.4/newlib/lib/libstdc++.a(string-inst.o)
                                                  /SDK/local/newlib/lib/libregex.a(regexec.o)
                                                  ../cups/libcups.a(http.o)
                                                  ../ipr/AttrGroups.o
memcpy                                            /SDK/newlib/lib/libc.a(stub_memcpy.o)
                                                  /GCC/lib/gcc/ppc-amigaos/4.2.4/newlib/lib/libstdc++.a(cp-demangle.o)
                                                  /GCC/lib/gcc/ppc-amigaos/4.2.4/newlib/lib/libstdc++.a(string-inst.o)
                                                  /SDK/local/newlib/lib/libregex.a(regexec.o)
                                                  /SDK/local/newlib/lib/libregex.a(regcomp.o)
                                                  /SDK/local/newlib/lib/libz.a(trees.o)
                                                  /SDK/local/newlib/lib/libz.a(inflate.o)
                                                  /SDK/local/newlib/lib/libz.a(deflate.o)
                                                  ../cups/libcups.a(file.o)
                                                  ../cups/libcups.a(array.o)
                                                  ../cups/libcups.a(string.o)
                                                  ../cups/libcups.a(md5.o)
                                                  ../cups/libcups.a(language.o)
                                                  ../cups/libcups.a(ipp.o)
                                                  ../cups/libcups.a(http-addrlist.o)
                                                  ../cups/libcups.a(http.o)
memmove                                           /SDK/newlib/lib/libc.a(stub_memmove.o)
                                                  /GCC/lib/gcc/ppc-amigaos/4.2.4/newlib/lib/libstdc++.a(string-inst.o)
                                                  /SDK/local/newlib/lib/libregex.a(regcomp.o)
                                                  ../cups/libcups.a(array.o)
                                                  ../cups/libcups.a(string.o)
                                                  ../cups/libcups.a(ipp.o)
                                                  ../cups/libcups.a(http-addrlist.o)
                                                  ../cups/libcups.a(http.o)
memset                                            /SDK/newlib/lib/libc.a(stub_memset.o)
                                                  /GCC/lib/gcc/ppc-amigaos/4.2.4/newlib/lib/libstdc++.a(eh_alloc.o)
                                                  /GCC/lib/gcc/ppc-amigaos/4.2.4/newlib/lib/libstdc++.a(string-inst.o)
                                                  /SDK/local/newlib/lib/libregex.a(regexec.o)
                                                  /SDK/local/newlib/lib/libregex.a(regcomp.o)
                                                  /SDK/local/newlib/lib/libz.a(deflate.o)
                                                  ../cups/libcups.a(globals.o)
                                                  ../cups/libcups.a(array.o)
                                                  ../cups/libcups.a(usersys.o)
                                                  ../cups/libcups.a(ipp.o)
                                                  ../cups/libcups.a(http.o)
                                                  ../ipr/ipr.o
                                                  ipp_dev.o
mktime                                            /SDK/newlib/lib/libc.a(stub_mktime.o)
                                                  ../cups/libcups.a(ipp.o)
open                                              /SDK/newlib/lib/libc.a(stub_open.o)
                                                  ../cups/libcups.a(file.o)
                                                  ../cups/libcups.a(request.o)
                                                  ../ipr/ipr.o
operator delete(void*)                            /GCC/lib/gcc/ppc-amigaos/4.2.4/newlib/lib/libstdc++.a(del_op.o)
                                                  /GCC/lib/gcc/ppc-amigaos/4.2.4/newlib/lib/libstdc++.a(tinfo.o)
                                                  /GCC/lib/gcc/ppc-amigaos/4.2.4/newlib/lib/libstdc++.a(new_handler.o)
                                                  /GCC/lib/gcc/ppc-amigaos/4.2.4/newlib/lib/libstdc++.a(eh_exception.o)
                                                  /GCC/lib/gcc/ppc-amigaos/4.2.4/newlib/lib/libstdc++.a(del_opv.o)
                                                  /GCC/lib/gcc/ppc-amigaos/4.2.4/newlib/lib/libstdc++.a(string-inst.o)
                                                  /GCC/lib/gcc/ppc-amigaos/4.2.4/newlib/lib/libstdc++.a(stdexcept.o)
                                                  /GCC/lib/gcc/ppc-amigaos/4.2.4/newlib/lib/libstdc++.a(ios_failure.o)
                                                  /GCC/lib/gcc/ppc-amigaos/4.2.4/newlib/lib/libstdc++.a(functexcept.o)
                                                  ../ipr/AttrGroups.o
operator delete[](void*)                          /GCC/lib/gcc/ppc-amigaos/4.2.4/newlib/lib/libstdc++.a(del_opv.o)
                                                  ../ipr/AttrGroups.o
                                                  ../ipr/iprutil.o
operator new(unsigned int)                        /GCC/lib/gcc/ppc-amigaos/4.2.4/newlib/lib/libstdc++.a(new_op.o)
                                                  /GCC/lib/gcc/ppc-amigaos/4.2.4/newlib/lib/libstdc++.a(new_opv.o)
                                                  /GCC/lib/gcc/ppc-amigaos/4.2.4/newlib/lib/libstdc++.a(string-inst.o)
                                                  ../ipr/AttrGroups.o
operator new[](unsigned int)                      /GCC/lib/gcc/ppc-amigaos/4.2.4/newlib/lib/libstdc++.a(new_opv.o)
                                                  ../ipr/AttrGroups.o
                                                  ../ipr/iprutil.o
pathnameToFilename(char const*)                   ../ipr/ipr.o
perror                                            /SDK/newlib/lib/libc.a(stub_perror.o)
                                                  ../ipr/ipr.o
printf                                            /SDK/newlib/lib/libc.a(stub_printf.o)
                                                  ../ipr/AttrGroups.o
                                                  ../ipr/iprutil.o
                                                  ../ipr/ipr.o
putchar                                           /SDK/newlib/lib/libc.a(stub_putchar.o)
                                                  ../ipr/AttrGroups.o
                                                  ../ipr/ipr.o
puts                                              /SDK/newlib/lib/libc.a(stub_puts.o)
                                                  ../ipr/ipr.o
rand                                              /SDK/newlib/lib/libc.a(stub_rand.o)
                                                  ../cups/libcups.a(http-support.o)
read                                              /SDK/newlib/lib/libc.a(stub_read.o)
                                                  ../cups/libcups.a(file.o)
                                                  ../cups/libcups.a(request.o)
                                                  ../cups/libcups.a(ipp.o)
realloc                                           /SDK/newlib/lib/libc.a(stub_realloc.o)
                                                  /GCC/lib/gcc/ppc-amigaos/4.2.4/newlib/lib/libstdc++.a(cp-demangle.o)
                                                  /SDK/local/newlib/lib/libregex.a(regcomp.o)
                                                  ../cups/libcups.a(file.o)
                                                  ../cups/libcups.a(array.o)
                                                  ../cups/libcups.a(language.o)
                                                  ../cups/libcups.a(ipp.o)
                                                  ../ipr/iprutil.o
recv                                              /SDK/newlib/lib/libc.a(stub_recv.o)
                                                  ../cups/libcups.a(file.o)
                                                  ../cups/libcups.a(request.o)
                                                  ../cups/libcups.a(http.o)
regcomp                                           /SDK/local/newlib/lib/libregex.a(regcomp.o)
                                                  ../cups/libcups.a(ipp.o)
regerror                                          /SDK/local/newlib/lib/libregex.a(regerror.o)
                                                  ../cups/libcups.a(ipp.o)
regexec                                           /SDK/local/newlib/lib/libregex.a(regexec.o)
                                                  ../cups/libcups.a(ipp.o)
regfree                                           /SDK/local/newlib/lib/libregex.a(regfree.o)
                                                  /SDK/local/newlib/lib/libregex.a(regcomp.o)
                                                  ../cups/libcups.a(ipp.o)
select                                            /SDK/newlib/lib/libc.a(stub_select.o)
                                                  ../cups/libcups.a(http-addrlist.o)
                                                  ../cups/libcups.a(http.o)
send                                              /SDK/newlib/lib/libc.a(stub_send.o)
                                                  ../cups/libcups.a(file.o)
                                                  ../cups/libcups.a(http.o)
setlocale                                         /SDK/newlib/lib/libc.a(stub_setlocale.o)
                                                  ../cups/libcups.a(language.o)
                                                  ../cups/libcups.a(langprintf.o)
setsockopt                                        /SDK/newlib/lib/libc.a(stub_setsockopt.o)
                                                  ../cups/libcups.a(http-addrlist.o)
                                                  ../cups/libcups.a(http-addr.o)
                                                  ../cups/libcups.a(http.o)
shutdown                                          /SDK/newlib/lib/libc.a(stub_shutdown.o)
                                                  ../cups/libcups.a(http.o)
signal                                            /SDK/newlib/lib/libc.a(stub_signal.o)
                                                  ../cups/libcups.a(http.o)
snprintf                                          /SDK/newlib/lib/libc.a(stub_snprintf.o)
                                                  ../cups/libcups.a(md5passwd.o)
                                                  ../cups/libcups.a(ipp-support.o)
                                                  ../cups/libcups.a(file.o)
                                                  ../cups/libcups.a(auth.o)
                                                  ../cups/libcups.a(usersys.o)
                                                  ../cups/libcups.a(string.o)
                                                  ../cups/libcups.a(language.o)
                                                  ../cups/libcups.a(langprintf.o)
                                                  ../cups/libcups.a(http-support.o)
                                                  ../cups/libcups.a(http-addr.o)
                                                  ../cups/libcups.a(http.o)
                                                  ../ipr/AttrGroups.o
socket                                            /SDK/newlib/lib/libc.a(stub_socket.o)
                                                  ../cups/libcups.a(http-addrlist.o)
                                                  ../cups/libcups.a(http-addr.o)
sprintf                                           /SDK/newlib/lib/libc.a(stub_sprintf.o)
                                                  /SDK/local/newlib/lib/libregex.a(regerror.o)
                                                  ../cups/libcups.a(ipp-support.o)
                                                  ../ipr/AttrGroups.o
                                                  ../ipr/ipr.o
sscanf                                            /SDK/newlib/lib/libc.a(stub_sscanf.o)
                                                  ../cups/libcups.a(http-support.o)
                                                  ../cups/libcups.a(http-addrlist.o)
                                                  ../cups/libcups.a(http-addr.o)
                                                  ../cups/libcups.a(http.o)
stat                                              /SDK/newlib/lib/libc.a(stub_stat.o)
                                                  ../cups/libcups.a(file.o)
std::_Rb_tree<std::string, std::pair<std::string const, int>, std::_Select1st<std::pair<std::string const, int> >, std::less<std::string>, std::allocator<std::pair<std::string const, int> > >::_M_erase(std::_Rb_tree_node<std::pair<std::string const, int> >*) ../ipr/AttrGroups.o
std::_Rb_tree<std::string, std::pair<std::string const, int>, std::_Select1st<std::pair<std::string const, int> >, std::less<std::string>, std::allocator<std::pair<std::string const, int> > >::_M_insert(std::_Rb_tree_node_base*, std::_Rb_tree_node_base*, std::pair<std::string const, int> const&) ../ipr/AttrGroups.o
std::_Rb_tree<std::string, std::pair<std::string const, int>, std::_Select1st<std::pair<std::string const, int> >, std::less<std::string>, std::allocator<std::pair<std::string const, int> > >::_M_insert_unique(std::pair<std::string const, int> const&) ../ipr/AttrGroups.o
std::_Rb_tree<std::string, std::pair<std::string const, int>, std::_Select1st<std::pair<std::string const, int> >, std::less<std::string>, std::allocator<std::pair<std::string const, int> > >::find(std::string const&) ../ipr/AttrGroups.o
std::_Rb_tree_black_count(std::_Rb_tree_node_base const*, std::_Rb_tree_node_base const*) /GCC/lib/gcc/ppc-amigaos/4.2.4/newlib/lib/libstdc++.a(tree.o)
std::_Rb_tree_decrement(std::_Rb_tree_node_base const*) /GCC/lib/gcc/ppc-amigaos/4.2.4/newlib/lib/libstdc++.a(tree.o)
std::_Rb_tree_decrement(std::_Rb_tree_node_base*) /GCC/lib/gcc/ppc-amigaos/4.2.4/newlib/lib/libstdc++.a(tree.o)
                                                  ../ipr/AttrGroups.o
std::_Rb_tree_increment(std::_Rb_tree_node_base const*) /GCC/lib/gcc/ppc-amigaos/4.2.4/newlib/lib/libstdc++.a(tree.o)
std::_Rb_tree_increment(std::_Rb_tree_node_base*) /GCC/lib/gcc/ppc-amigaos/4.2.4/newlib/lib/libstdc++.a(tree.o)
                                                  ../ipr/AttrGroups.o
std::_Rb_tree_insert_and_rebalance(bool, std::_Rb_tree_node_base*, std::_Rb_tree_node_base*, std::_Rb_tree_node_base&) /GCC/lib/gcc/ppc-amigaos/4.2.4/newlib/lib/libstdc++.a(tree.o)
                                                  ../ipr/AttrGroups.o
std::_Rb_tree_rebalance_for_erase(std::_Rb_tree_node_base*, std::_Rb_tree_node_base&) /GCC/lib/gcc/ppc-amigaos/4.2.4/newlib/lib/libstdc++.a(tree.o)
std::_Rb_tree_rotate_left(std::_Rb_tree_node_base*, std::_Rb_tree_node_base*&) /GCC/lib/gcc/ppc-amigaos/4.2.4/newlib/lib/libstdc++.a(tree.o)
std::_Rb_tree_rotate_right(std::_Rb_tree_node_base*, std::_Rb_tree_node_base*&) /GCC/lib/gcc/ppc-amigaos/4.2.4/newlib/lib/libstdc++.a(tree.o)
std::__throw_bad_alloc()                          /GCC/lib/gcc/ppc-amigaos/4.2.4/newlib/lib/libstdc++.a(functexcept.o)
                                                  ../ipr/AttrGroups.o
std::__throw_bad_cast()                           /GCC/lib/gcc/ppc-amigaos/4.2.4/newlib/lib/libstdc++.a(functexcept.o)
std::__throw_bad_exception()                      /GCC/lib/gcc/ppc-amigaos/4.2.4/newlib/lib/libstdc++.a(functexcept.o)
std::__throw_bad_typeid()                         /GCC/lib/gcc/ppc-amigaos/4.2.4/newlib/lib/libstdc++.a(functexcept.o)
std::__throw_domain_error(char const*)            /GCC/lib/gcc/ppc-amigaos/4.2.4/newlib/lib/libstdc++.a(functexcept.o)
std::__throw_invalid_argument(char const*)        /GCC/lib/gcc/ppc-amigaos/4.2.4/newlib/lib/libstdc++.a(functexcept.o)
std::__throw_ios_failure(char const*)             /GCC/lib/gcc/ppc-amigaos/4.2.4/newlib/lib/libstdc++.a(functexcept.o)
std::__throw_length_error(char const*)            /GCC/lib/gcc/ppc-amigaos/4.2.4/newlib/lib/libstdc++.a(functexcept.o)
                                                  /GCC/lib/gcc/ppc-amigaos/4.2.4/newlib/lib/libstdc++.a(string-inst.o)
                                                  ../ipr/AttrGroups.o
std::__throw_logic_error(char const*)             /GCC/lib/gcc/ppc-amigaos/4.2.4/newlib/lib/libstdc++.a(functexcept.o)
                                                  /GCC/lib/gcc/ppc-amigaos/4.2.4/newlib/lib/libstdc++.a(string-inst.o)
std::__throw_out_of_range(char const*)            /GCC/lib/gcc/ppc-amigaos/4.2.4/newlib/lib/libstdc++.a(functexcept.o)
                                                  /GCC/lib/gcc/ppc-amigaos/4.2.4/newlib/lib/libstdc++.a(string-inst.o)
std::__throw_overflow_error(char const*)          /GCC/lib/gcc/ppc-amigaos/4.2.4/newlib/lib/libstdc++.a(functexcept.o)
std::__throw_range_error(char const*)             /GCC/lib/gcc/ppc-amigaos/4.2.4/newlib/lib/libstdc++.a(functexcept.o)
std::__throw_runtime_error(char const*)           /GCC/lib/gcc/ppc-amigaos/4.2.4/newlib/lib/libstdc++.a(functexcept.o)
std::__throw_underflow_error(char const*)         /GCC/lib/gcc/ppc-amigaos/4.2.4/newlib/lib/libstdc++.a(functexcept.o)
std::bad_alloc::what() const                      /GCC/lib/gcc/ppc-amigaos/4.2.4/newlib/lib/libstdc++.a(new_handler.o)
std::bad_alloc::~bad_alloc()                      /GCC/lib/gcc/ppc-amigaos/4.2.4/newlib/lib/libstdc++.a(new_handler.o)
                                                  /GCC/lib/gcc/ppc-amigaos/4.2.4/newlib/lib/libstdc++.a(new_op.o)
                                                  /GCC/lib/gcc/ppc-amigaos/4.2.4/newlib/lib/libstdc++.a(functexcept.o)
std::bad_alloc::~bad_alloc()                      /GCC/lib/gcc/ppc-amigaos/4.2.4/newlib/lib/libstdc++.a(new_handler.o)
std::bad_alloc::~bad_alloc()                      /GCC/lib/gcc/ppc-amigaos/4.2.4/newlib/lib/libstdc++.a(new_handler.o)
std::bad_cast::what() const                       /GCC/lib/gcc/ppc-amigaos/4.2.4/newlib/lib/libstdc++.a(tinfo.o)
std::bad_cast::~bad_cast()                        /GCC/lib/gcc/ppc-amigaos/4.2.4/newlib/lib/libstdc++.a(tinfo.o)
                                                  /GCC/lib/gcc/ppc-amigaos/4.2.4/newlib/lib/libstdc++.a(functexcept.o)
std::bad_cast::~bad_cast()                        /GCC/lib/gcc/ppc-amigaos/4.2.4/newlib/lib/libstdc++.a(tinfo.o)
std::bad_cast::~bad_cast()                        /GCC/lib/gcc/ppc-amigaos/4.2.4/newlib/lib/libstdc++.a(tinfo.o)
std::bad_exception::what() const                  /GCC/lib/gcc/ppc-amigaos/4.2.4/newlib/lib/libstdc++.a(eh_exception.o)
std::bad_exception::~bad_exception()              /GCC/lib/gcc/ppc-amigaos/4.2.4/newlib/lib/libstdc++.a(eh_exception.o)
                                                  /GCC/lib/gcc/ppc-amigaos/4.2.4/newlib/lib/libstdc++.a(eh_personality.o)
                                                  /GCC/lib/gcc/ppc-amigaos/4.2.4/newlib/lib/libstdc++.a(functexcept.o)
std::bad_exception::~bad_exception()              /GCC/lib/gcc/ppc-amigaos/4.2.4/newlib/lib/libstdc++.a(eh_exception.o)
std::bad_exception::~bad_exception()              /GCC/lib/gcc/ppc-amigaos/4.2.4/newlib/lib/libstdc++.a(eh_exception.o)
std::bad_typeid::what() const                     /GCC/lib/gcc/ppc-amigaos/4.2.4/newlib/lib/libstdc++.a(tinfo.o)
std::bad_typeid::~bad_typeid()                    /GCC/lib/gcc/ppc-amigaos/4.2.4/newlib/lib/libstdc++.a(tinfo.o)
std::bad_typeid::~bad_typeid()                    /GCC/lib/gcc/ppc-amigaos/4.2.4/newlib/lib/libstdc++.a(tinfo.o)
                                                  /GCC/lib/gcc/ppc-amigaos/4.2.4/newlib/lib/libstdc++.a(functexcept.o)
std::bad_typeid::~bad_typeid()                    /GCC/lib/gcc/ppc-amigaos/4.2.4/newlib/lib/libstdc++.a(tinfo.o)
std::basic_string<char, std::char_traits<char>, std::allocator<char> > std::operator+<char, std::char_traits<char>, std::allocator<char> >(char const*, std::basic_string<char, std::char_traits<char>, std::allocator<char> > const&) /GCC/lib/gcc/ppc-amigaos/4.2.4/newlib/lib/libstdc++.a(string-inst.o)
std::basic_string<char, std::char_traits<char>, std::allocator<char> > std::operator+<char, std::char_traits<char>, std::allocator<char> >(char, std::basic_string<char, std::char_traits<char>, std::allocator<char> > const&) /GCC/lib/gcc/ppc-amigaos/4.2.4/newlib/lib/libstdc++.a(string-inst.o)
std::basic_string<char, std::char_traits<char>, std::allocator<char> > std::operator+<char, std::char_traits<char>, std::allocator<char> >(std::basic_string<char, std::char_traits<char>, std::allocator<char> > const&, std::basic_string<char, std::char_traits<char>, std::allocator<char> > const&) /GCC/lib/gcc/ppc-amigaos/4.2.4/newlib/lib/libstdc++.a(string-inst.o)
std::basic_string<char, std::char_traits<char>, std::allocator<char> >::basic_string() /GCC/lib/gcc/ppc-amigaos/4.2.4/newlib/lib/libstdc++.a(string-inst.o)
std::basic_string<char, std::char_traits<char>, std::allocator<char> >::basic_string() /GCC/lib/gcc/ppc-amigaos/4.2.4/newlib/lib/libstdc++.a(string-inst.o)
std::basic_string<char, std::char_traits<char>, std::allocator<char> >::basic_string(char const*, std::allocator<char> const&) /GCC/lib/gcc/ppc-amigaos/4.2.4/newlib/lib/libstdc++.a(string-inst.o)
                                                  /GCC/lib/gcc/ppc-amigaos/4.2.4/newlib/lib/libstdc++.a(functexcept.o)
                                                  ../ipr/AttrGroups.o
std::basic_string<char, std::char_traits<char>, std::allocator<char> >::basic_string(char const*, std::allocator<char> const&) /GCC/lib/gcc/ppc-amigaos/4.2.4/newlib/lib/libstdc++.a(string-inst.o)
std::basic_string<char, std::char_traits<char>, std::allocator<char> >::basic_string(char const*, unsigned int, std::allocator<char> const&) /GCC/lib/gcc/ppc-amigaos/4.2.4/newlib/lib/libstdc++.a(string-inst.o)
std::basic_string<char, std::char_traits<char>, std::allocator<char> >::basic_string(char const*, unsigned int, std::allocator<char> const&) /GCC/lib/gcc/ppc-amigaos/4.2.4/newlib/lib/libstdc++.a(string-inst.o)
std::basic_string<char, std::char_traits<char>, std::allocator<char> >::basic_string(std::allocator<char> const&) /GCC/lib/gcc/ppc-amigaos/4.2.4/newlib/lib/libstdc++.a(string-inst.o)
std::basic_string<char, std::char_traits<char>, std::allocator<char> >::basic_string(std::allocator<char> const&) /GCC/lib/gcc/ppc-amigaos/4.2.4/newlib/lib/libstdc++.a(string-inst.o)
std::basic_string<char, std::char_traits<char>, std::allocator<char> >::basic_string(std::string const&) /GCC/lib/gcc/ppc-amigaos/4.2.4/newlib/lib/libstdc++.a(string-inst.o)
                                                  /GCC/lib/gcc/ppc-amigaos/4.2.4/newlib/lib/libstdc++.a(stdexcept.o)
                                                  /GCC/lib/gcc/ppc-amigaos/4.2.4/newlib/lib/libstdc++.a(ios_failure.o)
                                                  ../ipr/AttrGroups.o
std::basic_string<char, std::char_traits<char>, std::allocator<char> >::basic_string(std::string const&) /GCC/lib/gcc/ppc-amigaos/4.2.4/newlib/lib/libstdc++.a(string-inst.o)
std::basic_string<char, std::char_traits<char>, std::allocator<char> >::basic_string(std::string const&, unsigned int, unsigned int) /GCC/lib/gcc/ppc-amigaos/4.2.4/newlib/lib/libstdc++.a(string-inst.o)
std::basic_string<char, std::char_traits<char>, std::allocator<char> >::basic_string(std::string const&, unsigned int, unsigned int) /GCC/lib/gcc/ppc-amigaos/4.2.4/newlib/lib/libstdc++.a(string-inst.o)
std::basic_string<char, std::char_traits<char>, std::allocator<char> >::basic_string(std::string const&, unsigned int, unsigned int, std::allocator<char> const&) /GCC/lib/gcc/ppc-amigaos/4.2.4/newlib/lib/libstdc++.a(string-inst.o)
std::basic_string<char, std::char_traits<char>, std::allocator<char> >::basic_string(std::string const&, unsigned int, unsigned int, std::allocator<char> const&) /GCC/lib/gcc/ppc-amigaos/4.2.4/newlib/lib/libstdc++.a(string-inst.o)
std::basic_string<char, std::char_traits<char>, std::allocator<char> >::basic_string(unsigned int, char, std::allocator<char> const&) /GCC/lib/gcc/ppc-amigaos/4.2.4/newlib/lib/libstdc++.a(string-inst.o)
std::basic_string<char, std::char_traits<char>, std::allocator<char> >::basic_string(unsigned int, char, std::allocator<char> const&) /GCC/lib/gcc/ppc-amigaos/4.2.4/newlib/lib/libstdc++.a(string-inst.o)
std::basic_string<char, std::char_traits<char>, std::allocator<char> >::basic_string<__gnu_cxx::__normal_iterator<char*, std::string> >(__gnu_cxx::__normal_iterator<char*, std::string>, __gnu_cxx::__normal_iterator<char*, std::string>, std::allocator<char> const&) /GCC/lib/gcc/ppc-amigaos/4.2.4/newlib/lib/libstdc++.a(string-inst.o)
std::basic_string<char, std::char_traits<char>, std::allocator<char> >::basic_string<__gnu_cxx::__normal_iterator<char*, std::string> >(__gnu_cxx::__normal_iterator<char*, std::string>, __gnu_cxx::__normal_iterator<char*, std::string>, std::allocator<char> const&) /GCC/lib/gcc/ppc-amigaos/4.2.4/newlib/lib/libstdc++.a(string-inst.o)
std::basic_string<char, std::char_traits<char>, std::allocator<char> >::basic_string<char const*>(char const*, char const*, std::allocator<char> const&) /GCC/lib/gcc/ppc-amigaos/4.2.4/newlib/lib/libstdc++.a(string-inst.o)
std::basic_string<char, std::char_traits<char>, std::allocator<char> >::basic_string<char const*>(char const*, char const*, std::allocator<char> const&) /GCC/lib/gcc/ppc-amigaos/4.2.4/newlib/lib/libstdc++.a(string-inst.o)
std::basic_string<char, std::char_traits<char>, std::allocator<char> >::basic_string<char*>(char*, char*, std::allocator<char> const&) /GCC/lib/gcc/ppc-amigaos/4.2.4/newlib/lib/libstdc++.a(string-inst.o)
std::basic_string<char, std::char_traits<char>, std::allocator<char> >::basic_string<char*>(char*, char*, std::allocator<char> const&) /GCC/lib/gcc/ppc-amigaos/4.2.4/newlib/lib/libstdc++.a(string-inst.o)
std::basic_string<char, std::char_traits<char>, std::allocator<char> >::~basic_string() /GCC/lib/gcc/ppc-amigaos/4.2.4/newlib/lib/libstdc++.a(string-inst.o)
std::basic_string<char, std::char_traits<char>, std::allocator<char> >::~basic_string() /GCC/lib/gcc/ppc-amigaos/4.2.4/newlib/lib/libstdc++.a(string-inst.o)
std::domain_error::domain_error(std::string const&) /GCC/lib/gcc/ppc-amigaos/4.2.4/newlib/lib/libstdc++.a(stdexcept.o)
                                                  /GCC/lib/gcc/ppc-amigaos/4.2.4/newlib/lib/libstdc++.a(functexcept.o)
std::domain_error::domain_error(std::string const&) /GCC/lib/gcc/ppc-amigaos/4.2.4/newlib/lib/libstdc++.a(stdexcept.o)
std::domain_error::~domain_error()                /GCC/lib/gcc/ppc-amigaos/4.2.4/newlib/lib/libstdc++.a(functexcept.o)
                                                  /GCC/lib/gcc/ppc-amigaos/4.2.4/newlib/lib/libstdc++.a(stdexcept.o)
std::domain_error::~domain_error()                /GCC/lib/gcc/ppc-amigaos/4.2.4/newlib/lib/libstdc++.a(functexcept.o)
                                                  /GCC/lib/gcc/ppc-amigaos/4.2.4/newlib/lib/libstdc++.a(stdexcept.o)
std::exception::what() const                      /GCC/lib/gcc/ppc-amigaos/4.2.4/newlib/lib/libstdc++.a(eh_exception.o)
std::exception::~exception()                      /GCC/lib/gcc/ppc-amigaos/4.2.4/newlib/lib/libstdc++.a(eh_exception.o)
                                                  /GCC/lib/gcc/ppc-amigaos/4.2.4/newlib/lib/libstdc++.a(tinfo.o)
                                                  /GCC/lib/gcc/ppc-amigaos/4.2.4/newlib/lib/libstdc++.a(new_handler.o)
                                                  /GCC/lib/gcc/ppc-amigaos/4.2.4/newlib/lib/libstdc++.a(stdexcept.o)
                                                  /GCC/lib/gcc/ppc-amigaos/4.2.4/newlib/lib/libstdc++.a(ios_failure.o)
std::exception::~exception()                      /GCC/lib/gcc/ppc-amigaos/4.2.4/newlib/lib/libstdc++.a(eh_exception.o)
std::exception::~exception()                      /GCC/lib/gcc/ppc-amigaos/4.2.4/newlib/lib/libstdc++.a(eh_exception.o)
std::invalid_argument::invalid_argument(std::string const&) /GCC/lib/gcc/ppc-amigaos/4.2.4/newlib/lib/libstdc++.a(stdexcept.o)
                                                  /GCC/lib/gcc/ppc-amigaos/4.2.4/newlib/lib/libstdc++.a(functexcept.o)
std::invalid_argument::invalid_argument(std::string const&) /GCC/lib/gcc/ppc-amigaos/4.2.4/newlib/lib/libstdc++.a(stdexcept.o)
std::invalid_argument::~invalid_argument()        /GCC/lib/gcc/ppc-amigaos/4.2.4/newlib/lib/libstdc++.a(functexcept.o)
                                                  /GCC/lib/gcc/ppc-amigaos/4.2.4/newlib/lib/libstdc++.a(stdexcept.o)
std::invalid_argument::~invalid_argument()        /GCC/lib/gcc/ppc-amigaos/4.2.4/newlib/lib/libstdc++.a(functexcept.o)
                                                  /GCC/lib/gcc/ppc-amigaos/4.2.4/newlib/lib/libstdc++.a(stdexcept.o)
std::ios_base::failure::failure(std::string const&) /GCC/lib/gcc/ppc-amigaos/4.2.4/newlib/lib/libstdc++.a(ios_failure.o)
                                                  /GCC/lib/gcc/ppc-amigaos/4.2.4/newlib/lib/libstdc++.a(functexcept.o)
std::ios_base::failure::failure(std::string const&) /GCC/lib/gcc/ppc-amigaos/4.2.4/newlib/lib/libstdc++.a(ios_failure.o)
std::ios_base::failure::what() const              /GCC/lib/gcc/ppc-amigaos/4.2.4/newlib/lib/libstdc++.a(ios_failure.o)
std::ios_base::failure::~failure()                /GCC/lib/gcc/ppc-amigaos/4.2.4/newlib/lib/libstdc++.a(ios_failure.o)
std::ios_base::failure::~failure()                /GCC/lib/gcc/ppc-amigaos/4.2.4/newlib/lib/libstdc++.a(ios_failure.o)
                                                  /GCC/lib/gcc/ppc-amigaos/4.2.4/newlib/lib/libstdc++.a(functexcept.o)
std::ios_base::failure::~failure()                /GCC/lib/gcc/ppc-amigaos/4.2.4/newlib/lib/libstdc++.a(ios_failure.o)
std::length_error::length_error(std::string const&) /GCC/lib/gcc/ppc-amigaos/4.2.4/newlib/lib/libstdc++.a(stdexcept.o)
                                                  /GCC/lib/gcc/ppc-amigaos/4.2.4/newlib/lib/libstdc++.a(functexcept.o)
std::length_error::length_error(std::string const&) /GCC/lib/gcc/ppc-amigaos/4.2.4/newlib/lib/libstdc++.a(stdexcept.o)
std::length_error::~length_error()                /GCC/lib/gcc/ppc-amigaos/4.2.4/newlib/lib/libstdc++.a(functexcept.o)
                                                  /GCC/lib/gcc/ppc-amigaos/4.2.4/newlib/lib/libstdc++.a(stdexcept.o)
std::length_error::~length_error()                /GCC/lib/gcc/ppc-amigaos/4.2.4/newlib/lib/libstdc++.a(functexcept.o)
                                                  /GCC/lib/gcc/ppc-amigaos/4.2.4/newlib/lib/libstdc++.a(stdexcept.o)
std::logic_error::logic_error(std::string const&) /GCC/lib/gcc/ppc-amigaos/4.2.4/newlib/lib/libstdc++.a(stdexcept.o)
std::logic_error::logic_error(std::string const&) /GCC/lib/gcc/ppc-amigaos/4.2.4/newlib/lib/libstdc++.a(stdexcept.o)
                                                  /GCC/lib/gcc/ppc-amigaos/4.2.4/newlib/lib/libstdc++.a(functexcept.o)
std::logic_error::what() const                    /GCC/lib/gcc/ppc-amigaos/4.2.4/newlib/lib/libstdc++.a(stdexcept.o)
                                                  /GCC/lib/gcc/ppc-amigaos/4.2.4/newlib/lib/libstdc++.a(functexcept.o)
std::logic_error::~logic_error()                  /GCC/lib/gcc/ppc-amigaos/4.2.4/newlib/lib/libstdc++.a(stdexcept.o)
                                                  /GCC/lib/gcc/ppc-amigaos/4.2.4/newlib/lib/libstdc++.a(functexcept.o)
std::logic_error::~logic_error()                  /GCC/lib/gcc/ppc-amigaos/4.2.4/newlib/lib/libstdc++.a(stdexcept.o)
std::logic_error::~logic_error()                  /GCC/lib/gcc/ppc-amigaos/4.2.4/newlib/lib/libstdc++.a(stdexcept.o)
                                                  /GCC/lib/gcc/ppc-amigaos/4.2.4/newlib/lib/libstdc++.a(functexcept.o)
std::nothrow                                      /GCC/lib/gcc/ppc-amigaos/4.2.4/newlib/lib/libstdc++.a(new_handler.o)
std::out_of_range::out_of_range(std::string const&) /GCC/lib/gcc/ppc-amigaos/4.2.4/newlib/lib/libstdc++.a(stdexcept.o)
                                                  /GCC/lib/gcc/ppc-amigaos/4.2.4/newlib/lib/libstdc++.a(functexcept.o)
std::out_of_range::out_of_range(std::string const&) /GCC/lib/gcc/ppc-amigaos/4.2.4/newlib/lib/libstdc++.a(stdexcept.o)
std::out_of_range::~out_of_range()                /GCC/lib/gcc/ppc-amigaos/4.2.4/newlib/lib/libstdc++.a(functexcept.o)
                                                  /GCC/lib/gcc/ppc-amigaos/4.2.4/newlib/lib/libstdc++.a(stdexcept.o)
std::out_of_range::~out_of_range()                /GCC/lib/gcc/ppc-amigaos/4.2.4/newlib/lib/libstdc++.a(functexcept.o)
                                                  /GCC/lib/gcc/ppc-amigaos/4.2.4/newlib/lib/libstdc++.a(stdexcept.o)
std::overflow_error::overflow_error(std::string const&) /GCC/lib/gcc/ppc-amigaos/4.2.4/newlib/lib/libstdc++.a(stdexcept.o)
std::overflow_error::overflow_error(std::string const&) /GCC/lib/gcc/ppc-amigaos/4.2.4/newlib/lib/libstdc++.a(stdexcept.o)
                                                  /GCC/lib/gcc/ppc-amigaos/4.2.4/newlib/lib/libstdc++.a(functexcept.o)
std::overflow_error::~overflow_error()            /GCC/lib/gcc/ppc-amigaos/4.2.4/newlib/lib/libstdc++.a(functexcept.o)
                                                  /GCC/lib/gcc/ppc-amigaos/4.2.4/newlib/lib/libstdc++.a(stdexcept.o)
std::overflow_error::~overflow_error()            /GCC/lib/gcc/ppc-amigaos/4.2.4/newlib/lib/libstdc++.a(functexcept.o)
                                                  /GCC/lib/gcc/ppc-amigaos/4.2.4/newlib/lib/libstdc++.a(stdexcept.o)
std::range_error::range_error(std::string const&) /GCC/lib/gcc/ppc-amigaos/4.2.4/newlib/lib/libstdc++.a(stdexcept.o)
std::range_error::range_error(std::string const&) /GCC/lib/gcc/ppc-amigaos/4.2.4/newlib/lib/libstdc++.a(stdexcept.o)
                                                  /GCC/lib/gcc/ppc-amigaos/4.2.4/newlib/lib/libstdc++.a(functexcept.o)
std::range_error::~range_error()                  /GCC/lib/gcc/ppc-amigaos/4.2.4/newlib/lib/libstdc++.a(functexcept.o)
                                                  /GCC/lib/gcc/ppc-amigaos/4.2.4/newlib/lib/libstdc++.a(stdexcept.o)
std::range_error::~range_error()                  /GCC/lib/gcc/ppc-amigaos/4.2.4/newlib/lib/libstdc++.a(functexcept.o)
                                                  /GCC/lib/gcc/ppc-amigaos/4.2.4/newlib/lib/libstdc++.a(stdexcept.o)
std::runtime_error::runtime_error(std::string const&) /GCC/lib/gcc/ppc-amigaos/4.2.4/newlib/lib/libstdc++.a(stdexcept.o)
std::runtime_error::runtime_error(std::string const&) /GCC/lib/gcc/ppc-amigaos/4.2.4/newlib/lib/libstdc++.a(stdexcept.o)
                                                  /GCC/lib/gcc/ppc-amigaos/4.2.4/newlib/lib/libstdc++.a(functexcept.o)
std::runtime_error::what() const                  /GCC/lib/gcc/ppc-amigaos/4.2.4/newlib/lib/libstdc++.a(stdexcept.o)
                                                  /GCC/lib/gcc/ppc-amigaos/4.2.4/newlib/lib/libstdc++.a(functexcept.o)
std::runtime_error::~runtime_error()              /GCC/lib/gcc/ppc-amigaos/4.2.4/newlib/lib/libstdc++.a(stdexcept.o)
                                                  /GCC/lib/gcc/ppc-amigaos/4.2.4/newlib/lib/libstdc++.a(functexcept.o)
std::runtime_error::~runtime_error()              /GCC/lib/gcc/ppc-amigaos/4.2.4/newlib/lib/libstdc++.a(stdexcept.o)
std::runtime_error::~runtime_error()              /GCC/lib/gcc/ppc-amigaos/4.2.4/newlib/lib/libstdc++.a(stdexcept.o)
                                                  /GCC/lib/gcc/ppc-amigaos/4.2.4/newlib/lib/libstdc++.a(functexcept.o)
std::set_new_handler(void (*)())                  /GCC/lib/gcc/ppc-amigaos/4.2.4/newlib/lib/libstdc++.a(new_handler.o)
std::set_terminate(void (*)())                    /GCC/lib/gcc/ppc-amigaos/4.2.4/newlib/lib/libstdc++.a(eh_terminate.o)
std::set_unexpected(void (*)())                   /GCC/lib/gcc/ppc-amigaos/4.2.4/newlib/lib/libstdc++.a(eh_terminate.o)
std::string::_Alloc_hider::_Alloc_hider(char*, std::allocator<char> const&) /GCC/lib/gcc/ppc-amigaos/4.2.4/newlib/lib/libstdc++.a(string-inst.o)
std::string::_Alloc_hider::_Alloc_hider(char*, std::allocator<char> const&) /GCC/lib/gcc/ppc-amigaos/4.2.4/newlib/lib/libstdc++.a(string-inst.o)
std::string::_M_assign(char*, unsigned int, char) /GCC/lib/gcc/ppc-amigaos/4.2.4/newlib/lib/libstdc++.a(string-inst.o)
std::string::_M_check(unsigned int, char const*) const /GCC/lib/gcc/ppc-amigaos/4.2.4/newlib/lib/libstdc++.a(string-inst.o)
std::string::_M_check_length(unsigned int, unsigned int, char const*) const /GCC/lib/gcc/ppc-amigaos/4.2.4/newlib/lib/libstdc++.a(string-inst.o)
std::string::_M_copy(char*, char const*, unsigned int) /GCC/lib/gcc/ppc-amigaos/4.2.4/newlib/lib/libstdc++.a(string-inst.o)
std::string::_M_data() const                      /GCC/lib/gcc/ppc-amigaos/4.2.4/newlib/lib/libstdc++.a(string-inst.o)
std::string::_M_data(char*)                       /GCC/lib/gcc/ppc-amigaos/4.2.4/newlib/lib/libstdc++.a(string-inst.o)
std::string::_M_disjunct(char const*) const       /GCC/lib/gcc/ppc-amigaos/4.2.4/newlib/lib/libstdc++.a(string-inst.o)
std::string::_M_ibegin() const                    /GCC/lib/gcc/ppc-amigaos/4.2.4/newlib/lib/libstdc++.a(string-inst.o)
std::string::_M_iend() const                      /GCC/lib/gcc/ppc-amigaos/4.2.4/newlib/lib/libstdc++.a(string-inst.o)
std::string::_M_leak()                            /GCC/lib/gcc/ppc-amigaos/4.2.4/newlib/lib/libstdc++.a(string-inst.o)
std::string::_M_leak_hard()                       /GCC/lib/gcc/ppc-amigaos/4.2.4/newlib/lib/libstdc++.a(string-inst.o)
std::string::_M_limit(unsigned int, unsigned int) const /GCC/lib/gcc/ppc-amigaos/4.2.4/newlib/lib/libstdc++.a(string-inst.o)
std::string::_M_move(char*, char const*, unsigned int) /GCC/lib/gcc/ppc-amigaos/4.2.4/newlib/lib/libstdc++.a(string-inst.o)
std::string::_M_mutate(unsigned int, unsigned int, unsigned int) /GCC/lib/gcc/ppc-amigaos/4.2.4/newlib/lib/libstdc++.a(string-inst.o)
std::string::_M_rep() const                       /GCC/lib/gcc/ppc-amigaos/4.2.4/newlib/lib/libstdc++.a(string-inst.o)
std::string::_M_replace_aux(unsigned int, unsigned int, unsigned int, char) /GCC/lib/gcc/ppc-amigaos/4.2.4/newlib/lib/libstdc++.a(string-inst.o)
std::string::_M_replace_safe(unsigned int, unsigned int, char const*, unsigned int) /GCC/lib/gcc/ppc-amigaos/4.2.4/newlib/lib/libstdc++.a(string-inst.o)
std::string::_Rep::_M_clone(std::allocator<char> const&, unsigned int) /GCC/lib/gcc/ppc-amigaos/4.2.4/newlib/lib/libstdc++.a(string-inst.o)
std::string::_Rep::_M_destroy(std::allocator<char> const&) /GCC/lib/gcc/ppc-amigaos/4.2.4/newlib/lib/libstdc++.a(string-inst.o)
                                                  /GCC/lib/gcc/ppc-amigaos/4.2.4/newlib/lib/libstdc++.a(stdexcept.o)
                                                  /GCC/lib/gcc/ppc-amigaos/4.2.4/newlib/lib/libstdc++.a(ios_failure.o)
                                                  /GCC/lib/gcc/ppc-amigaos/4.2.4/newlib/lib/libstdc++.a(functexcept.o)
                                                  ../ipr/AttrGroups.o
std::string::_Rep::_M_dispose(std::allocator<char> const&) /GCC/lib/gcc/ppc-amigaos/4.2.4/newlib/lib/libstdc++.a(string-inst.o)
std::string::_Rep::_M_grab(std::allocator<char> const&, std::allocator<char> const&) /GCC/lib/gcc/ppc-amigaos/4.2.4/newlib/lib/libstdc++.a(string-inst.o)
std::string::_Rep::_M_is_leaked() const           /GCC/lib/gcc/ppc-amigaos/4.2.4/newlib/lib/libstdc++.a(string-inst.o)
std::string::_Rep::_M_is_shared() const           /GCC/lib/gcc/ppc-amigaos/4.2.4/newlib/lib/libstdc++.a(string-inst.o)
std::string::_Rep::_M_refcopy()                   /GCC/lib/gcc/ppc-amigaos/4.2.4/newlib/lib/libstdc++.a(string-inst.o)
std::string::_Rep::_M_refdata()                   /GCC/lib/gcc/ppc-amigaos/4.2.4/newlib/lib/libstdc++.a(string-inst.o)
std::string::_Rep::_M_set_leaked()                /GCC/lib/gcc/ppc-amigaos/4.2.4/newlib/lib/libstdc++.a(string-inst.o)
std::string::_Rep::_M_set_length_and_sharable(unsigned int) /GCC/lib/gcc/ppc-amigaos/4.2.4/newlib/lib/libstdc++.a(string-inst.o)
std::string::_Rep::_M_set_sharable()              /GCC/lib/gcc/ppc-amigaos/4.2.4/newlib/lib/libstdc++.a(string-inst.o)
std::string::_Rep::_S_create(unsigned int, unsigned int, std::allocator<char> const&) /GCC/lib/gcc/ppc-amigaos/4.2.4/newlib/lib/libstdc++.a(string-inst.o)
std::string::_Rep::_S_empty_rep()                 /GCC/lib/gcc/ppc-amigaos/4.2.4/newlib/lib/libstdc++.a(string-inst.o)
std::string::_Rep::_S_empty_rep_storage           /GCC/lib/gcc/ppc-amigaos/4.2.4/newlib/lib/libstdc++.a(string-inst.o)
                                                  /GCC/lib/gcc/ppc-amigaos/4.2.4/newlib/lib/libstdc++.a(stdexcept.o)
                                                  /GCC/lib/gcc/ppc-amigaos/4.2.4/newlib/lib/libstdc++.a(ios_failure.o)
                                                  /GCC/lib/gcc/ppc-amigaos/4.2.4/newlib/lib/libstdc++.a(functexcept.o)
                                                  ../ipr/AttrGroups.o
std::string::_Rep::_S_max_size                    /GCC/lib/gcc/ppc-amigaos/4.2.4/newlib/lib/libstdc++.a(string-inst.o)
std::string::_Rep::_S_terminal                    /GCC/lib/gcc/ppc-amigaos/4.2.4/newlib/lib/libstdc++.a(string-inst.o)
std::string::_S_construct(unsigned int, char, std::allocator<char> const&) /GCC/lib/gcc/ppc-amigaos/4.2.4/newlib/lib/libstdc++.a(string-inst.o)
std::string::_S_copy_chars(char*, __gnu_cxx::__normal_iterator<char const*, std::string>, __gnu_cxx::__normal_iterator<char const*, std::string>) /GCC/lib/gcc/ppc-amigaos/4.2.4/newlib/lib/libstdc++.a(string-inst.o)
std::string::_S_copy_chars(char*, __gnu_cxx::__normal_iterator<char*, std::string>, __gnu_cxx::__normal_iterator<char*, std::string>) /GCC/lib/gcc/ppc-amigaos/4.2.4/newlib/lib/libstdc++.a(string-inst.o)
std::string::_S_copy_chars(char*, char const*, char const*) /GCC/lib/gcc/ppc-amigaos/4.2.4/newlib/lib/libstdc++.a(string-inst.o)
std::string::_S_copy_chars(char*, char*, char*)   /GCC/lib/gcc/ppc-amigaos/4.2.4/newlib/lib/libstdc++.a(string-inst.o)
std::string::_S_empty_rep()                       /GCC/lib/gcc/ppc-amigaos/4.2.4/newlib/lib/libstdc++.a(string-inst.o)
std::string::append(char const*)                  /GCC/lib/gcc/ppc-amigaos/4.2.4/newlib/lib/libstdc++.a(string-inst.o)
std::string::append(char const*, unsigned int)    /GCC/lib/gcc/ppc-amigaos/4.2.4/newlib/lib/libstdc++.a(string-inst.o)
                                                  ../ipr/AttrGroups.o
std::string::append(std::string const&)           /GCC/lib/gcc/ppc-amigaos/4.2.4/newlib/lib/libstdc++.a(string-inst.o)
std::string::append(std::string const&, unsigned int, unsigned int) /GCC/lib/gcc/ppc-amigaos/4.2.4/newlib/lib/libstdc++.a(string-inst.o)
std::string::append(unsigned int, char)           /GCC/lib/gcc/ppc-amigaos/4.2.4/newlib/lib/libstdc++.a(string-inst.o)
std::string::assign(char const*)                  /GCC/lib/gcc/ppc-amigaos/4.2.4/newlib/lib/libstdc++.a(string-inst.o)
std::string::assign(char const*, unsigned int)    /GCC/lib/gcc/ppc-amigaos/4.2.4/newlib/lib/libstdc++.a(string-inst.o)
                                                  ../ipr/AttrGroups.o
std::string::assign(std::string const&)           /GCC/lib/gcc/ppc-amigaos/4.2.4/newlib/lib/libstdc++.a(string-inst.o)
                                                  ../ipr/AttrGroups.o
std::string::assign(std::string const&, unsigned int, unsigned int) /GCC/lib/gcc/ppc-amigaos/4.2.4/newlib/lib/libstdc++.a(string-inst.o)
std::string::assign(unsigned int, char)           /GCC/lib/gcc/ppc-amigaos/4.2.4/newlib/lib/libstdc++.a(string-inst.o)
std::string::at(unsigned int)                     /GCC/lib/gcc/ppc-amigaos/4.2.4/newlib/lib/libstdc++.a(string-inst.o)
std::string::at(unsigned int) const               /GCC/lib/gcc/ppc-amigaos/4.2.4/newlib/lib/libstdc++.a(string-inst.o)
std::string::begin()                              /GCC/lib/gcc/ppc-amigaos/4.2.4/newlib/lib/libstdc++.a(string-inst.o)
std::string::begin() const                        /GCC/lib/gcc/ppc-amigaos/4.2.4/newlib/lib/libstdc++.a(string-inst.o)
std::string::c_str() const                        /GCC/lib/gcc/ppc-amigaos/4.2.4/newlib/lib/libstdc++.a(string-inst.o)
std::string::capacity() const                     /GCC/lib/gcc/ppc-amigaos/4.2.4/newlib/lib/libstdc++.a(string-inst.o)
std::string::clear()                              /GCC/lib/gcc/ppc-amigaos/4.2.4/newlib/lib/libstdc++.a(string-inst.o)
std::string::compare(char const*) const           /GCC/lib/gcc/ppc-amigaos/4.2.4/newlib/lib/libstdc++.a(string-inst.o)
std::string::compare(std::string const&) const    /GCC/lib/gcc/ppc-amigaos/4.2.4/newlib/lib/libstdc++.a(string-inst.o)
std::string::compare(unsigned int, unsigned int, char const*) const /GCC/lib/gcc/ppc-amigaos/4.2.4/newlib/lib/libstdc++.a(string-inst.o)
std::string::compare(unsigned int, unsigned int, char const*, unsigned int) const /GCC/lib/gcc/ppc-amigaos/4.2.4/newlib/lib/libstdc++.a(string-inst.o)
std::string::compare(unsigned int, unsigned int, std::string const&) const /GCC/lib/gcc/ppc-amigaos/4.2.4/newlib/lib/libstdc++.a(string-inst.o)
std::string::compare(unsigned int, unsigned int, std::string const&, unsigned int, unsigned int) const /GCC/lib/gcc/ppc-amigaos/4.2.4/newlib/lib/libstdc++.a(string-inst.o)
std::string::copy(char*, unsigned int, unsigned int) const /GCC/lib/gcc/ppc-amigaos/4.2.4/newlib/lib/libstdc++.a(string-inst.o)
std::string::data() const                         /GCC/lib/gcc/ppc-amigaos/4.2.4/newlib/lib/libstdc++.a(string-inst.o)
std::string::empty() const                        /GCC/lib/gcc/ppc-amigaos/4.2.4/newlib/lib/libstdc++.a(string-inst.o)
std::string::end()                                /GCC/lib/gcc/ppc-amigaos/4.2.4/newlib/lib/libstdc++.a(string-inst.o)
std::string::end() const                          /GCC/lib/gcc/ppc-amigaos/4.2.4/newlib/lib/libstdc++.a(string-inst.o)
std::string::erase(__gnu_cxx::__normal_iterator<char*, std::string>) /GCC/lib/gcc/ppc-amigaos/4.2.4/newlib/lib/libstdc++.a(string-inst.o)
std::string::erase(__gnu_cxx::__normal_iterator<char*, std::string>, __gnu_cxx::__normal_iterator<char*, std::string>) /GCC/lib/gcc/ppc-amigaos/4.2.4/newlib/lib/libstdc++.a(string-inst.o)
std::string::erase(unsigned int, unsigned int)    /GCC/lib/gcc/ppc-amigaos/4.2.4/newlib/lib/libstdc++.a(string-inst.o)
std::string::find(char const*, unsigned int) const /GCC/lib/gcc/ppc-amigaos/4.2.4/newlib/lib/libstdc++.a(string-inst.o)
std::string::find(char const*, unsigned int, unsigned int) const /GCC/lib/gcc/ppc-amigaos/4.2.4/newlib/lib/libstdc++.a(string-inst.o)
std::string::find(char, unsigned int) const       /GCC/lib/gcc/ppc-amigaos/4.2.4/newlib/lib/libstdc++.a(string-inst.o)
std::string::find(std::string const&, unsigned int) const /GCC/lib/gcc/ppc-amigaos/4.2.4/newlib/lib/libstdc++.a(string-inst.o)
std::string::find_first_not_of(char const*, unsigned int) const /GCC/lib/gcc/ppc-amigaos/4.2.4/newlib/lib/libstdc++.a(string-inst.o)
std::string::find_first_not_of(char const*, unsigned int, unsigned int) const /GCC/lib/gcc/ppc-amigaos/4.2.4/newlib/lib/libstdc++.a(string-inst.o)
std::string::find_first_not_of(char, unsigned int) const /GCC/lib/gcc/ppc-amigaos/4.2.4/newlib/lib/libstdc++.a(string-inst.o)
std::string::find_first_not_of(std::string const&, unsigned int) const /GCC/lib/gcc/ppc-amigaos/4.2.4/newlib/lib/libstdc++.a(string-inst.o)
std::string::find_first_of(char const*, unsigned int) const /GCC/lib/gcc/ppc-amigaos/4.2.4/newlib/lib/libstdc++.a(string-inst.o)
std::string::find_first_of(char const*, unsigned int, unsigned int) const /GCC/lib/gcc/ppc-amigaos/4.2.4/newlib/lib/libstdc++.a(string-inst.o)
std::string::find_first_of(char, unsigned int) const /GCC/lib/gcc/ppc-amigaos/4.2.4/newlib/lib/libstdc++.a(string-inst.o)
std::string::find_first_of(std::string const&, unsigned int) const /GCC/lib/gcc/ppc-amigaos/4.2.4/newlib/lib/libstdc++.a(string-inst.o)
std::string::find_last_not_of(char const*, unsigned int) const /GCC/lib/gcc/ppc-amigaos/4.2.4/newlib/lib/libstdc++.a(string-inst.o)
std::string::find_last_not_of(char const*, unsigned int, unsigned int) const /GCC/lib/gcc/ppc-amigaos/4.2.4/newlib/lib/libstdc++.a(string-inst.o)
std::string::find_last_not_of(char, unsigned int) const /GCC/lib/gcc/ppc-amigaos/4.2.4/newlib/lib/libstdc++.a(string-inst.o)
std::string::find_last_not_of(std::string const&, unsigned int) const /GCC/lib/gcc/ppc-amigaos/4.2.4/newlib/lib/libstdc++.a(string-inst.o)
std::string::find_last_of(char const*, unsigned int) const /GCC/lib/gcc/ppc-amigaos/4.2.4/newlib/lib/libstdc++.a(string-inst.o)
std::string::find_last_of(char const*, unsigned int, unsigned int) const /GCC/lib/gcc/ppc-amigaos/4.2.4/newlib/lib/libstdc++.a(string-inst.o)
std::string::find_last_of(char, unsigned int) const /GCC/lib/gcc/ppc-amigaos/4.2.4/newlib/lib/libstdc++.a(string-inst.o)
std::string::find_last_of(std::string const&, unsigned int) const /GCC/lib/gcc/ppc-amigaos/4.2.4/newlib/lib/libstdc++.a(string-inst.o)
std::string::get_allocator() const                /GCC/lib/gcc/ppc-amigaos/4.2.4/newlib/lib/libstdc++.a(string-inst.o)
std::string::insert(__gnu_cxx::__normal_iterator<char*, std::string>, char) /GCC/lib/gcc/ppc-amigaos/4.2.4/newlib/lib/libstdc++.a(string-inst.o)
std::string::insert(__gnu_cxx::__normal_iterator<char*, std::string>, unsigned int, char) /GCC/lib/gcc/ppc-amigaos/4.2.4/newlib/lib/libstdc++.a(string-inst.o)
std::string::insert(unsigned int, char const*)    /GCC/lib/gcc/ppc-amigaos/4.2.4/newlib/lib/libstdc++.a(string-inst.o)
std::string::insert(unsigned int, char const*, unsigned int) /GCC/lib/gcc/ppc-amigaos/4.2.4/newlib/lib/libstdc++.a(string-inst.o)
std::string::insert(unsigned int, std::string const&) /GCC/lib/gcc/ppc-amigaos/4.2.4/newlib/lib/libstdc++.a(string-inst.o)
std::string::insert(unsigned int, std::string const&, unsigned int, unsigned int) /GCC/lib/gcc/ppc-amigaos/4.2.4/newlib/lib/libstdc++.a(string-inst.o)
std::string::insert(unsigned int, unsigned int, char) /GCC/lib/gcc/ppc-amigaos/4.2.4/newlib/lib/libstdc++.a(string-inst.o)
std::string::length() const                       /GCC/lib/gcc/ppc-amigaos/4.2.4/newlib/lib/libstdc++.a(string-inst.o)
std::string::max_size() const                     /GCC/lib/gcc/ppc-amigaos/4.2.4/newlib/lib/libstdc++.a(string-inst.o)
std::string::npos                                 /GCC/lib/gcc/ppc-amigaos/4.2.4/newlib/lib/libstdc++.a(string-inst.o)
std::string::operator+=(char const*)              /GCC/lib/gcc/ppc-amigaos/4.2.4/newlib/lib/libstdc++.a(string-inst.o)
std::string::operator+=(char)                     /GCC/lib/gcc/ppc-amigaos/4.2.4/newlib/lib/libstdc++.a(string-inst.o)
std::string::operator+=(std::string const&)       /GCC/lib/gcc/ppc-amigaos/4.2.4/newlib/lib/libstdc++.a(string-inst.o)
std::string::operator=(char const*)               /GCC/lib/gcc/ppc-amigaos/4.2.4/newlib/lib/libstdc++.a(string-inst.o)
std::string::operator=(char)                      /GCC/lib/gcc/ppc-amigaos/4.2.4/newlib/lib/libstdc++.a(string-inst.o)
std::string::operator=(std::string const&)        /GCC/lib/gcc/ppc-amigaos/4.2.4/newlib/lib/libstdc++.a(string-inst.o)
std::string::operator[](unsigned int)             /GCC/lib/gcc/ppc-amigaos/4.2.4/newlib/lib/libstdc++.a(string-inst.o)
std::string::operator[](unsigned int) const       /GCC/lib/gcc/ppc-amigaos/4.2.4/newlib/lib/libstdc++.a(string-inst.o)
std::string::push_back(char)                      /GCC/lib/gcc/ppc-amigaos/4.2.4/newlib/lib/libstdc++.a(string-inst.o)
std::string::rbegin()                             /GCC/lib/gcc/ppc-amigaos/4.2.4/newlib/lib/libstdc++.a(string-inst.o)
std::string::rbegin() const                       /GCC/lib/gcc/ppc-amigaos/4.2.4/newlib/lib/libstdc++.a(string-inst.o)
std::string::rend()                               /GCC/lib/gcc/ppc-amigaos/4.2.4/newlib/lib/libstdc++.a(string-inst.o)
std::string::rend() const                         /GCC/lib/gcc/ppc-amigaos/4.2.4/newlib/lib/libstdc++.a(string-inst.o)
std::string::replace(__gnu_cxx::__normal_iterator<char*, std::string>, __gnu_cxx::__normal_iterator<char*, std::string>, __gnu_cxx::__normal_iterator<char const*, std::string>, __gnu_cxx::__normal_iterator<char const*, std::string>) /GCC/lib/gcc/ppc-amigaos/4.2.4/newlib/lib/libstdc++.a(string-inst.o)
std::string::replace(__gnu_cxx::__normal_iterator<char*, std::string>, __gnu_cxx::__normal_iterator<char*, std::string>, __gnu_cxx::__normal_iterator<char*, std::string>, __gnu_cxx::__normal_iterator<char*, std::string>) /GCC/lib/gcc/ppc-amigaos/4.2.4/newlib/lib/libstdc++.a(string-inst.o)
std::string::replace(__gnu_cxx::__normal_iterator<char*, std::string>, __gnu_cxx::__normal_iterator<char*, std::string>, char const*) /GCC/lib/gcc/ppc-amigaos/4.2.4/newlib/lib/libstdc++.a(string-inst.o)
std::string::replace(__gnu_cxx::__normal_iterator<char*, std::string>, __gnu_cxx::__normal_iterator<char*, std::string>, char const*, char const*) /GCC/lib/gcc/ppc-amigaos/4.2.4/newlib/lib/libstdc++.a(string-inst.o)
std::string::replace(__gnu_cxx::__normal_iterator<char*, std::string>, __gnu_cxx::__normal_iterator<char*, std::string>, char const*, unsigned int) /GCC/lib/gcc/ppc-amigaos/4.2.4/newlib/lib/libstdc++.a(string-inst.o)
std::string::replace(__gnu_cxx::__normal_iterator<char*, std::string>, __gnu_cxx::__normal_iterator<char*, std::string>, char*, char*) /GCC/lib/gcc/ppc-amigaos/4.2.4/newlib/lib/libstdc++.a(string-inst.o)
std::string::replace(__gnu_cxx::__normal_iterator<char*, std::string>, __gnu_cxx::__normal_iterator<char*, std::string>, std::string const&) /GCC/lib/gcc/ppc-amigaos/4.2.4/newlib/lib/libstdc++.a(string-inst.o)
std::string::replace(__gnu_cxx::__normal_iterator<char*, std::string>, __gnu_cxx::__normal_iterator<char*, std::string>, unsigned int, char) /GCC/lib/gcc/ppc-amigaos/4.2.4/newlib/lib/libstdc++.a(string-inst.o)
std::string::replace(unsigned int, unsigned int, char const*) /GCC/lib/gcc/ppc-amigaos/4.2.4/newlib/lib/libstdc++.a(string-inst.o)
std::string::replace(unsigned int, unsigned int, char const*, unsigned int) /GCC/lib/gcc/ppc-amigaos/4.2.4/newlib/lib/libstdc++.a(string-inst.o)
std::string::replace(unsigned int, unsigned int, std::string const&) /GCC/lib/gcc/ppc-amigaos/4.2.4/newlib/lib/libstdc++.a(string-inst.o)
std::string::replace(unsigned int, unsigned int, std::string const&, unsigned int, unsigned int) /GCC/lib/gcc/ppc-amigaos/4.2.4/newlib/lib/libstdc++.a(string-inst.o)
std::string::replace(unsigned int, unsigned int, unsigned int, char) /GCC/lib/gcc/ppc-amigaos/4.2.4/newlib/lib/libstdc++.a(string-inst.o)
std::string::reserve(unsigned int)                /GCC/lib/gcc/ppc-amigaos/4.2.4/newlib/lib/libstdc++.a(string-inst.o)
                                                  ../ipr/AttrGroups.o
std::string::resize(unsigned int)                 /GCC/lib/gcc/ppc-amigaos/4.2.4/newlib/lib/libstdc++.a(string-inst.o)
std::string::resize(unsigned int, char)           /GCC/lib/gcc/ppc-amigaos/4.2.4/newlib/lib/libstdc++.a(string-inst.o)
std::string::rfind(char const*, unsigned int) const /GCC/lib/gcc/ppc-amigaos/4.2.4/newlib/lib/libstdc++.a(string-inst.o)
std::string::rfind(char const*, unsigned int, unsigned int) const /GCC/lib/gcc/ppc-amigaos/4.2.4/newlib/lib/libstdc++.a(string-inst.o)
std::string::rfind(char, unsigned int) const      /GCC/lib/gcc/ppc-amigaos/4.2.4/newlib/lib/libstdc++.a(string-inst.o)
std::string::rfind(std::string const&, unsigned int) const /GCC/lib/gcc/ppc-amigaos/4.2.4/newlib/lib/libstdc++.a(string-inst.o)
std::string::size() const                         /GCC/lib/gcc/ppc-amigaos/4.2.4/newlib/lib/libstdc++.a(string-inst.o)
std::string::substr(unsigned int, unsigned int) const /GCC/lib/gcc/ppc-amigaos/4.2.4/newlib/lib/libstdc++.a(string-inst.o)
std::string::swap(std::string&)                   /GCC/lib/gcc/ppc-amigaos/4.2.4/newlib/lib/libstdc++.a(string-inst.o)
std::terminate()                                  /GCC/lib/gcc/ppc-amigaos/4.2.4/newlib/lib/libstdc++.a(eh_terminate.o)
                                                  /GCC/lib/gcc/ppc-amigaos/4.2.4/newlib/lib/libstdc++.a(eh_call.o)
                                                  /GCC/lib/gcc/ppc-amigaos/4.2.4/newlib/lib/libstdc++.a(eh_unex_handler.o)
                                                  /GCC/lib/gcc/ppc-amigaos/4.2.4/newlib/lib/libstdc++.a(eh_throw.o)
                                                  /GCC/lib/gcc/ppc-amigaos/4.2.4/newlib/lib/libstdc++.a(eh_personality.o)
                                                  /GCC/lib/gcc/ppc-amigaos/4.2.4/newlib/lib/libstdc++.a(eh_catch.o)
                                                  /GCC/lib/gcc/ppc-amigaos/4.2.4/newlib/lib/libstdc++.a(eh_alloc.o)
std::type_info::__do_catch(std::type_info const*, void**, unsigned int) const /GCC/lib/gcc/ppc-amigaos/4.2.4/newlib/lib/libstdc++.a(tinfo.o)
std::type_info::__do_upcast(__cxxabiv1::__class_type_info const*, void**) const /GCC/lib/gcc/ppc-amigaos/4.2.4/newlib/lib/libstdc++.a(tinfo.o)
std::type_info::__is_function_p() const           /GCC/lib/gcc/ppc-amigaos/4.2.4/newlib/lib/libstdc++.a(tinfo.o)
std::type_info::__is_pointer_p() const            /GCC/lib/gcc/ppc-amigaos/4.2.4/newlib/lib/libstdc++.a(tinfo.o)
std::type_info::~type_info()                      /GCC/lib/gcc/ppc-amigaos/4.2.4/newlib/lib/libstdc++.a(tinfo.o)
std::type_info::~type_info()                      /GCC/lib/gcc/ppc-amigaos/4.2.4/newlib/lib/libstdc++.a(tinfo.o)
std::type_info::~type_info()                      /GCC/lib/gcc/ppc-amigaos/4.2.4/newlib/lib/libstdc++.a(tinfo.o)
std::uncaught_exception()                         /GCC/lib/gcc/ppc-amigaos/4.2.4/newlib/lib/libstdc++.a(eh_catch.o)
std::underflow_error::underflow_error(std::string const&) /GCC/lib/gcc/ppc-amigaos/4.2.4/newlib/lib/libstdc++.a(stdexcept.o)
std::underflow_error::underflow_error(std::string const&) /GCC/lib/gcc/ppc-amigaos/4.2.4/newlib/lib/libstdc++.a(stdexcept.o)
                                                  /GCC/lib/gcc/ppc-amigaos/4.2.4/newlib/lib/libstdc++.a(functexcept.o)
std::underflow_error::~underflow_error()          /GCC/lib/gcc/ppc-amigaos/4.2.4/newlib/lib/libstdc++.a(functexcept.o)
                                                  /GCC/lib/gcc/ppc-amigaos/4.2.4/newlib/lib/libstdc++.a(stdexcept.o)
std::underflow_error::~underflow_error()          /GCC/lib/gcc/ppc-amigaos/4.2.4/newlib/lib/libstdc++.a(functexcept.o)
                                                  /GCC/lib/gcc/ppc-amigaos/4.2.4/newlib/lib/libstdc++.a(stdexcept.o)
std::unexpected()                                 /GCC/lib/gcc/ppc-amigaos/4.2.4/newlib/lib/libstdc++.a(eh_terminate.o)
                                                  /GCC/lib/gcc/ppc-amigaos/4.2.4/newlib/lib/libstdc++.a(eh_personality.o)
std::vector<std::string, std::allocator<std::string> >::_M_insert_aux(__gnu_cxx::__normal_iterator<std::string*, std::vector<std::string, std::allocator<std::string> > >, std::string const&) ../ipr/AttrGroups.o
stdinToBuffer                                     ../ipr/iprutil.o
strcat                                            /SDK/newlib/lib/libc.a(stub_strcat.o)
                                                  /GCC/lib/gcc/ppc-amigaos/4.2.4/newlib/lib/libstdc++.a(cp-demangle.o)
                                                  ../ipr/iprutil.o
                                                  ../ipr/ipr.o
                                                  ipp_dev.o
strchr                                            /SDK/newlib/lib/libc.a(stub_strchr.o)
                                                  ../cups/libcups.a(file.o)
                                                  ../cups/libcups.a(auth.o)
                                                  ../cups/libcups.a(array.o)
                                                  ../cups/libcups.a(usersys.o)
                                                  ../cups/libcups.a(string.o)
                                                  ../cups/libcups.a(language.o)
                                                  ../cups/libcups.a(langprintf.o)
                                                  ../cups/libcups.a(ipp.o)
                                                  ../cups/libcups.a(http-support.o)
                                                  ../cups/libcups.a(http-addr.o)
                                                  ../cups/libcups.a(http.o)
                                                  ../ipr/iprutil.o
strcmp                                            /SDK/newlib/lib/libc.a(stub_strcmp.o)
                                                  /GCC/lib/gcc/ppc-amigaos/4.2.4/newlib/lib/libstdc++.a(cp-demangle.o)
                                                  /SDK/local/newlib/lib/libregex.a(regerror.o)
                                                  ../cups/libcups.a(ipp-support.o)
                                                  ../cups/libcups.a(array.o)
                                                  ../cups/libcups.a(usersys.o)
                                                  ../cups/libcups.a(string.o)
                                                  ../cups/libcups.a(request.o)
                                                  ../cups/libcups.a(language.o)
                                                  ../cups/libcups.a(langprintf.o)
                                                  ../cups/libcups.a(ipp.o)
                                                  ../cups/libcups.a(http-support.o)
                                                  ../cups/libcups.a(http-addrlist.o)
                                                  ../cups/libcups.a(http-addr.o)
                                                  ../cups/libcups.a(http.o)
                                                  ../ipr/AttrGroups.o
                                                  ../ipr/iprutil.o
                                                  ../ipr/ipr.o
strcpy                                            /SDK/newlib/lib/libc.a(stub_strcpy.o)
                                                  /GCC/lib/gcc/ppc-amigaos/4.2.4/newlib/lib/libstdc++.a(cp-demangle.o)
                                                  /SDK/local/newlib/lib/libregex.a(regerror.o)
                                                  /SDK/local/newlib/lib/libregex.a(regcomp.o)
                                                  ../ipr/iprutil.o
                                                  ../ipr/ipr.o
                                                  ipp_dev.o
strdup                                            /SDK/newlib/lib/libc.a(stub_strdup.o)
                                                  ../cups/libcups.a(array.o)
                                                  ../cups/libcups.a(language.o)
                                                  ../cups/libcups.a(langprintf.o)
                                                  ../cups/libcups.a(http.o)
strerror                                          /SDK/newlib/lib/libc.a(stub_strerror.o)
                                                  ../cups/libcups.a(file.o)
                                                  ../cups/libcups.a(request.o)
                                                  ../cups/libcups.a(langprintf.o)
                                                  ../cups/libcups.a(http-support.o)
                                                  ../cups/libcups.a(http-addrlist.o)
                                                  ../cups/libcups.a(http.o)
strftime                                          /SDK/newlib/lib/libc.a(stub_strftime.o)
                                                  ../cups/libcups.a(string.o)
                                                  ../ipr/AttrGroups.o
strlen                                            /SDK/newlib/lib/libc.a(stub_strlen.o)
                                                  /GCC/lib/gcc/ppc-amigaos/4.2.4/newlib/lib/libstdc++.a(cp-demangle.o)
                                                  /GCC/lib/gcc/ppc-amigaos/4.2.4/newlib/lib/libstdc++.a(string-inst.o)
                                                  /SDK/local/newlib/lib/libregex.a(regexec.o)
                                                  /SDK/local/newlib/lib/libregex.a(regerror.o)
                                                  /SDK/local/newlib/lib/libregex.a(regcomp.o)
                                                  ../cups/libcups.a(md5passwd.o)
                                                  ../cups/libcups.a(ipp-support.o)
                                                  ../cups/libcups.a(file.o)
                                                  ../cups/libcups.a(auth.o)
                                                  ../cups/libcups.a(array.o)
                                                  ../cups/libcups.a(transcode.o)
                                                  ../cups/libcups.a(string.o)
                                                  ../cups/libcups.a(language.o)
                                                  ../cups/libcups.a(langprintf.o)
                                                  ../cups/libcups.a(ipp.o)
                                                  ../cups/libcups.a(http-support.o)
                                                  ../cups/libcups.a(http-addr.o)
                                                  ../cups/libcups.a(http.o)
                                                  ../ipr/AttrGroups.o
                                                  ../ipr/iprutil.o
                                                  ../ipr/ipr.o
                                                  ipp_dev.o
strncasecmp                                       /SDK/newlib/lib/libc.a(stub_strncasecmp.o)
                                                  ../ipr/ipr.o
strncmp                                           /SDK/newlib/lib/libc.a(stub_strncmp.o)
                                                  /GCC/lib/gcc/ppc-amigaos/4.2.4/newlib/lib/libstdc++.a(cp-demangle.o)
                                                  /SDK/local/newlib/lib/libregex.a(regcomp.o)
                                                  ../cups/libcups.a(ipp-support.o)
                                                  ../cups/libcups.a(request.o)
                                                  ../cups/libcups.a(language.o)
                                                  ../cups/libcups.a(http-support.o)
                                                  ../cups/libcups.a(http.o)
                                                  ../ipr/AttrGroups.o
                                                  ../ipr/iprutil.o
                                                  ../ipr/ipr.o
strncpy                                           /SDK/newlib/lib/libc.a(stub_strncpy.o)
                                                  /SDK/local/newlib/lib/libregex.a(regerror.o)
                                                  ../ipr/iprutil.o
                                                  ../ipr/ipr.o
                                                  ipp_dev.o
strpbrk                                           /SDK/newlib/lib/libc.a(stub_strpbrk.o)
                                                  ../cups/libcups.a(http-support.o)
strrchr                                           /SDK/newlib/lib/libc.a(stub_strrchr.o)
                                                  ../cups/libcups.a(file.o)
                                                  ../cups/libcups.a(usersys.o)
                                                  ../cups/libcups.a(language.o)
strstr                                            /SDK/newlib/lib/libc.a(stub_strstr.o)
                                                  ../cups/libcups.a(file.o)
                                                  ../cups/libcups.a(string.o)
                                                  ../cups/libcups.a(http-support.o)
                                                  ../ipr/iprutil.o
                                                  ../ipr/ipr.o
strtod                                            /SDK/newlib/lib/libc.a(stub_strtod.o)
                                                  ../cups/libcups.a(string.o)
strtol                                            /SDK/newlib/lib/libc.a(stub_strtol.o)
                                                  ../cups/libcups.a(ipp-support.o)
                                                  ../cups/libcups.a(http-support.o)
strtoll                                           /SDK/newlib/lib/libc.a(stub_strtoll.o)
                                                  ../cups/libcups.a(http.o)
time                                              /SDK/newlib/lib/libc.a(stub_time.o)
                                                  ../cups/libcups.a(file.o)
                                                  ../cups/libcups.a(http.o)
typeinfo for AttrGroups                           ../ipr/AttrGroups.o
typeinfo for __cxxabiv1::__class_type_info        /GCC/lib/gcc/ppc-amigaos/4.2.4/newlib/lib/libstdc++.a(tinfo.o)
typeinfo for __cxxabiv1::__si_class_type_info     /GCC/lib/gcc/ppc-amigaos/4.2.4/newlib/lib/libstdc++.a(tinfo.o)
typeinfo for __cxxabiv1::__vmi_class_type_info    /GCC/lib/gcc/ppc-amigaos/4.2.4/newlib/lib/libstdc++.a(tinfo.o)
typeinfo for std::bad_alloc                       /GCC/lib/gcc/ppc-amigaos/4.2.4/newlib/lib/libstdc++.a(new_handler.o)
                                                  /GCC/lib/gcc/ppc-amigaos/4.2.4/newlib/lib/libstdc++.a(new_opv.o)
                                                  /GCC/lib/gcc/ppc-amigaos/4.2.4/newlib/lib/libstdc++.a(new_op.o)
                                                  /GCC/lib/gcc/ppc-amigaos/4.2.4/newlib/lib/libstdc++.a(functexcept.o)
typeinfo for std::bad_cast                        /GCC/lib/gcc/ppc-amigaos/4.2.4/newlib/lib/libstdc++.a(tinfo.o)
                                                  /GCC/lib/gcc/ppc-amigaos/4.2.4/newlib/lib/libstdc++.a(functexcept.o)
typeinfo for std::bad_exception                   /GCC/lib/gcc/ppc-amigaos/4.2.4/newlib/lib/libstdc++.a(eh_exception.o)
                                                  /GCC/lib/gcc/ppc-amigaos/4.2.4/newlib/lib/libstdc++.a(eh_personality.o)
                                                  /GCC/lib/gcc/ppc-amigaos/4.2.4/newlib/lib/libstdc++.a(functexcept.o)
typeinfo for std::bad_typeid                      /GCC/lib/gcc/ppc-amigaos/4.2.4/newlib/lib/libstdc++.a(tinfo.o)
                                                  /GCC/lib/gcc/ppc-amigaos/4.2.4/newlib/lib/libstdc++.a(functexcept.o)
typeinfo for std::domain_error                    /GCC/lib/gcc/ppc-amigaos/4.2.4/newlib/lib/libstdc++.a(functexcept.o)
                                                  /GCC/lib/gcc/ppc-amigaos/4.2.4/newlib/lib/libstdc++.a(stdexcept.o)
typeinfo for std::exception                       /GCC/lib/gcc/ppc-amigaos/4.2.4/newlib/lib/libstdc++.a(eh_exception.o)
                                                  /GCC/lib/gcc/ppc-amigaos/4.2.4/newlib/lib/libstdc++.a(vterminate.o)
                                                  /GCC/lib/gcc/ppc-amigaos/4.2.4/newlib/lib/libstdc++.a(tinfo.o)
                                                  /GCC/lib/gcc/ppc-amigaos/4.2.4/newlib/lib/libstdc++.a(new_handler.o)
                                                  /GCC/lib/gcc/ppc-amigaos/4.2.4/newlib/lib/libstdc++.a(stdexcept.o)
                                                  /GCC/lib/gcc/ppc-amigaos/4.2.4/newlib/lib/libstdc++.a(ios_failure.o)
typeinfo for std::invalid_argument                /GCC/lib/gcc/ppc-amigaos/4.2.4/newlib/lib/libstdc++.a(functexcept.o)
                                                  /GCC/lib/gcc/ppc-amigaos/4.2.4/newlib/lib/libstdc++.a(stdexcept.o)
typeinfo for std::ios_base::failure               /GCC/lib/gcc/ppc-amigaos/4.2.4/newlib/lib/libstdc++.a(ios_failure.o)
                                                  /GCC/lib/gcc/ppc-amigaos/4.2.4/newlib/lib/libstdc++.a(functexcept.o)
typeinfo for std::length_error                    /GCC/lib/gcc/ppc-amigaos/4.2.4/newlib/lib/libstdc++.a(functexcept.o)
                                                  /GCC/lib/gcc/ppc-amigaos/4.2.4/newlib/lib/libstdc++.a(stdexcept.o)
typeinfo for std::logic_error                     /GCC/lib/gcc/ppc-amigaos/4.2.4/newlib/lib/libstdc++.a(stdexcept.o)
                                                  /GCC/lib/gcc/ppc-amigaos/4.2.4/newlib/lib/libstdc++.a(functexcept.o)
typeinfo for std::out_of_range                    /GCC/lib/gcc/ppc-amigaos/4.2.4/newlib/lib/libstdc++.a(functexcept.o)
                                                  /GCC/lib/gcc/ppc-amigaos/4.2.4/newlib/lib/libstdc++.a(stdexcept.o)
typeinfo for std::overflow_error                  /GCC/lib/gcc/ppc-amigaos/4.2.4/newlib/lib/libstdc++.a(functexcept.o)
                                                  /GCC/lib/gcc/ppc-amigaos/4.2.4/newlib/lib/libstdc++.a(stdexcept.o)
typeinfo for std::range_error                     /GCC/lib/gcc/ppc-amigaos/4.2.4/newlib/lib/libstdc++.a(functexcept.o)
                                                  /GCC/lib/gcc/ppc-amigaos/4.2.4/newlib/lib/libstdc++.a(stdexcept.o)
typeinfo for std::runtime_error                   /GCC/lib/gcc/ppc-amigaos/4.2.4/newlib/lib/libstdc++.a(stdexcept.o)
                                                  /GCC/lib/gcc/ppc-amigaos/4.2.4/newlib/lib/libstdc++.a(functexcept.o)
typeinfo for std::type_info                       /GCC/lib/gcc/ppc-amigaos/4.2.4/newlib/lib/libstdc++.a(tinfo.o)
typeinfo for std::underflow_error                 /GCC/lib/gcc/ppc-amigaos/4.2.4/newlib/lib/libstdc++.a(functexcept.o)
                                                  /GCC/lib/gcc/ppc-amigaos/4.2.4/newlib/lib/libstdc++.a(stdexcept.o)
typeinfo name for AttrGroups                      ../ipr/AttrGroups.o
typeinfo name for __cxxabiv1::__class_type_info   /GCC/lib/gcc/ppc-amigaos/4.2.4/newlib/lib/libstdc++.a(tinfo.o)
typeinfo name for __cxxabiv1::__si_class_type_info /GCC/lib/gcc/ppc-amigaos/4.2.4/newlib/lib/libstdc++.a(tinfo.o)
typeinfo name for __cxxabiv1::__vmi_class_type_info /GCC/lib/gcc/ppc-amigaos/4.2.4/newlib/lib/libstdc++.a(tinfo.o)
typeinfo name for std::bad_alloc                  /GCC/lib/gcc/ppc-amigaos/4.2.4/newlib/lib/libstdc++.a(new_handler.o)
typeinfo name for std::bad_cast                   /GCC/lib/gcc/ppc-amigaos/4.2.4/newlib/lib/libstdc++.a(tinfo.o)
typeinfo name for std::bad_exception              /GCC/lib/gcc/ppc-amigaos/4.2.4/newlib/lib/libstdc++.a(eh_exception.o)
typeinfo name for std::bad_typeid                 /GCC/lib/gcc/ppc-amigaos/4.2.4/newlib/lib/libstdc++.a(tinfo.o)
typeinfo name for std::domain_error               /GCC/lib/gcc/ppc-amigaos/4.2.4/newlib/lib/libstdc++.a(functexcept.o)
                                                  /GCC/lib/gcc/ppc-amigaos/4.2.4/newlib/lib/libstdc++.a(stdexcept.o)
typeinfo name for std::exception                  /GCC/lib/gcc/ppc-amigaos/4.2.4/newlib/lib/libstdc++.a(eh_exception.o)
typeinfo name for std::invalid_argument           /GCC/lib/gcc/ppc-amigaos/4.2.4/newlib/lib/libstdc++.a(functexcept.o)
                                                  /GCC/lib/gcc/ppc-amigaos/4.2.4/newlib/lib/libstdc++.a(stdexcept.o)
typeinfo name for std::ios_base::failure          /GCC/lib/gcc/ppc-amigaos/4.2.4/newlib/lib/libstdc++.a(ios_failure.o)
typeinfo name for std::length_error               /GCC/lib/gcc/ppc-amigaos/4.2.4/newlib/lib/libstdc++.a(functexcept.o)
                                                  /GCC/lib/gcc/ppc-amigaos/4.2.4/newlib/lib/libstdc++.a(stdexcept.o)
typeinfo name for std::logic_error                /GCC/lib/gcc/ppc-amigaos/4.2.4/newlib/lib/libstdc++.a(stdexcept.o)
typeinfo name for std::out_of_range               /GCC/lib/gcc/ppc-amigaos/4.2.4/newlib/lib/libstdc++.a(functexcept.o)
                                                  /GCC/lib/gcc/ppc-amigaos/4.2.4/newlib/lib/libstdc++.a(stdexcept.o)
typeinfo name for std::overflow_error             /GCC/lib/gcc/ppc-amigaos/4.2.4/newlib/lib/libstdc++.a(functexcept.o)
                                                  /GCC/lib/gcc/ppc-amigaos/4.2.4/newlib/lib/libstdc++.a(stdexcept.o)
typeinfo name for std::range_error                /GCC/lib/gcc/ppc-amigaos/4.2.4/newlib/lib/libstdc++.a(functexcept.o)
                                                  /GCC/lib/gcc/ppc-amigaos/4.2.4/newlib/lib/libstdc++.a(stdexcept.o)
typeinfo name for std::runtime_error              /GCC/lib/gcc/ppc-amigaos/4.2.4/newlib/lib/libstdc++.a(stdexcept.o)
typeinfo name for std::type_info                  /GCC/lib/gcc/ppc-amigaos/4.2.4/newlib/lib/libstdc++.a(tinfo.o)
typeinfo name for std::underflow_error            /GCC/lib/gcc/ppc-amigaos/4.2.4/newlib/lib/libstdc++.a(functexcept.o)
                                                  /GCC/lib/gcc/ppc-amigaos/4.2.4/newlib/lib/libstdc++.a(stdexcept.o)
uname                                             /SDK/newlib/lib/libc.a(stub_uname.o)
                                                  ../cups/libcups.a(usersys.o)
userEnv                                           ../ipr/ipr.o
vsnprintf                                         /SDK/newlib/lib/libc.a(stub_vsnprintf.o)
                                                  ../cups/libcups.a(file.o)
                                                  ../cups/libcups.a(langprintf.o)
                                                  ../cups/libcups.a(ipp.o)
                                                  ../cups/libcups.a(http-support.o)
                                                  ../cups/libcups.a(http.o)
vtable for AttrGroups                             ../ipr/AttrGroups.o
vtable for __cxxabiv1::__class_type_info          /GCC/lib/gcc/ppc-amigaos/4.2.4/newlib/lib/libstdc++.a(tinfo.o)
                                                  /GCC/lib/gcc/ppc-amigaos/4.2.4/newlib/lib/libstdc++.a(eh_exception.o)
                                                  ../ipr/AttrGroups.o
vtable for __cxxabiv1::__si_class_type_info       /GCC/lib/gcc/ppc-amigaos/4.2.4/newlib/lib/libstdc++.a(tinfo.o)
                                                  /GCC/lib/gcc/ppc-amigaos/4.2.4/newlib/lib/libstdc++.a(new_handler.o)
                                                  /GCC/lib/gcc/ppc-amigaos/4.2.4/newlib/lib/libstdc++.a(eh_exception.o)
                                                  /GCC/lib/gcc/ppc-amigaos/4.2.4/newlib/lib/libstdc++.a(stdexcept.o)
                                                  /GCC/lib/gcc/ppc-amigaos/4.2.4/newlib/lib/libstdc++.a(ios_failure.o)
                                                  /GCC/lib/gcc/ppc-amigaos/4.2.4/newlib/lib/libstdc++.a(functexcept.o)
vtable for __cxxabiv1::__vmi_class_type_info      /GCC/lib/gcc/ppc-amigaos/4.2.4/newlib/lib/libstdc++.a(tinfo.o)
vtable for std::bad_alloc                         /GCC/lib/gcc/ppc-amigaos/4.2.4/newlib/lib/libstdc++.a(new_handler.o)
                                                  /GCC/lib/gcc/ppc-amigaos/4.2.4/newlib/lib/libstdc++.a(new_op.o)
                                                  /GCC/lib/gcc/ppc-amigaos/4.2.4/newlib/lib/libstdc++.a(functexcept.o)
vtable for std::bad_cast                          /GCC/lib/gcc/ppc-amigaos/4.2.4/newlib/lib/libstdc++.a(tinfo.o)
                                                  /GCC/lib/gcc/ppc-amigaos/4.2.4/newlib/lib/libstdc++.a(functexcept.o)
vtable for std::bad_exception                     /GCC/lib/gcc/ppc-amigaos/4.2.4/newlib/lib/libstdc++.a(eh_exception.o)
                                                  /GCC/lib/gcc/ppc-amigaos/4.2.4/newlib/lib/libstdc++.a(eh_personality.o)
                                                  /GCC/lib/gcc/ppc-amigaos/4.2.4/newlib/lib/libstdc++.a(functexcept.o)
vtable for std::bad_typeid                        /GCC/lib/gcc/ppc-amigaos/4.2.4/newlib/lib/libstdc++.a(tinfo.o)
                                                  /GCC/lib/gcc/ppc-amigaos/4.2.4/newlib/lib/libstdc++.a(functexcept.o)
vtable for std::domain_error                      /GCC/lib/gcc/ppc-amigaos/4.2.4/newlib/lib/libstdc++.a(functexcept.o)
                                                  /GCC/lib/gcc/ppc-amigaos/4.2.4/newlib/lib/libstdc++.a(stdexcept.o)
vtable for std::exception                         /GCC/lib/gcc/ppc-amigaos/4.2.4/newlib/lib/libstdc++.a(eh_exception.o)
vtable for std::invalid_argument                  /GCC/lib/gcc/ppc-amigaos/4.2.4/newlib/lib/libstdc++.a(functexcept.o)
                                                  /GCC/lib/gcc/ppc-amigaos/4.2.4/newlib/lib/libstdc++.a(stdexcept.o)
vtable for std::ios_base::failure                 /GCC/lib/gcc/ppc-amigaos/4.2.4/newlib/lib/libstdc++.a(ios_failure.o)
vtable for std::length_error                      /GCC/lib/gcc/ppc-amigaos/4.2.4/newlib/lib/libstdc++.a(functexcept.o)
                                                  /GCC/lib/gcc/ppc-amigaos/4.2.4/newlib/lib/libstdc++.a(stdexcept.o)
vtable for std::logic_error                       /GCC/lib/gcc/ppc-amigaos/4.2.4/newlib/lib/libstdc++.a(stdexcept.o)
vtable for std::out_of_range                      /GCC/lib/gcc/ppc-amigaos/4.2.4/newlib/lib/libstdc++.a(functexcept.o)
                                                  /GCC/lib/gcc/ppc-amigaos/4.2.4/newlib/lib/libstdc++.a(stdexcept.o)
vtable for std::overflow_error                    /GCC/lib/gcc/ppc-amigaos/4.2.4/newlib/lib/libstdc++.a(functexcept.o)
                                                  /GCC/lib/gcc/ppc-amigaos/4.2.4/newlib/lib/libstdc++.a(stdexcept.o)
vtable for std::range_error                       /GCC/lib/gcc/ppc-amigaos/4.2.4/newlib/lib/libstdc++.a(functexcept.o)
                                                  /GCC/lib/gcc/ppc-amigaos/4.2.4/newlib/lib/libstdc++.a(stdexcept.o)
vtable for std::runtime_error                     /GCC/lib/gcc/ppc-amigaos/4.2.4/newlib/lib/libstdc++.a(stdexcept.o)
vtable for std::type_info                         /GCC/lib/gcc/ppc-amigaos/4.2.4/newlib/lib/libstdc++.a(tinfo.o)
vtable for std::underflow_error                   /GCC/lib/gcc/ppc-amigaos/4.2.4/newlib/lib/libstdc++.a(functexcept.o)
                                                  /GCC/lib/gcc/ppc-amigaos/4.2.4/newlib/lib/libstdc++.a(stdexcept.o)
wbuffer                                           ../ipr/ipr.o
write                                             /SDK/newlib/lib/libc.a(stub_write.o)
                                                  ../cups/libcups.a(file.o)
                                                  ../cups/libcups.a(request.o)
                                                  ../cups/libcups.a(ipp.o)
write_cb(void*, unsigned char*, unsigned int)     ../ipr/ipr.o
wused                                             ../ipr/ipr.o
zError                                            /SDK/local/newlib/lib/libz.a(zutil.o)
z_errmsg                                          /SDK/local/newlib/lib/libz.a(zutil.o)
                                                  /SDK/local/newlib/lib/libz.a(deflate.o)
zcalloc                                           /SDK/local/newlib/lib/libz.a(zutil.o)
                                                  /SDK/local/newlib/lib/libz.a(inflate.o)
                                                  /SDK/local/newlib/lib/libz.a(deflate.o)
zcfree                                            /SDK/local/newlib/lib/libz.a(zutil.o)
                                                  /SDK/local/newlib/lib/libz.a(inflate.o)
                                                  /SDK/local/newlib/lib/libz.a(deflate.o)
zlibCompileFlags                                  /SDK/local/newlib/lib/libz.a(zutil.o)
zlibVersion                                       /SDK/local/newlib/lib/libz.a(zutil.o)
